ccopy_reg
_reconstructor
p1
(ctensorflow.contrib.learn.python.learn.preprocessing.text
VocabularyProcessor
p2
c__builtin__
object
p3
NtRp4
(dp5
S'vocabulary_'
p6
g1
(ctensorflow.contrib.learn.python.learn.preprocessing.categorical_vocabulary
CategoricalVocabulary
p7
g3
NtRp8
(dp9
S'_freeze'
p10
I01
sS'_unknown_token'
p11
S'<UNK>'
p12
sS'_support_reverse'
p13
I01
sS'_freq'
p14
ccollections
defaultdict
p15
(c__builtin__
int
p16
tRp17
S'Savage'
p18
I1
sS'Stuart'
p19
I1
sS'Varnish'
p20
I1
sS'earmarks'
p21
I1
sS'Does'
p22
I1
sS'controversial'
p23
I1
sS'aides'
p24
I1
sS'captain'
p25
I1
sS'hate'
p26
I2
sS"Apple's"
p27
I1
sS'Liverpool'
p28
I6
sS'Livingstone'
p29
I1
sS"China's"
p30
I1
sS'Watch'
p31
I5
sS"fog'"
p32
I1
sS'under'
p33
I2
sS"'Fate"
p34
I1
sS'Shoot'
p35
I1
sS'League'
p36
I2
sS'GP'
p37
I1
sS'Became'
p38
I1
sS'GB'
p39
I1
sS'much-loved'
p40
I1
sS'Suitors'
p41
I1
sS'school'
p42
I1
sS'basics'
p43
I1
sS'Campaign'
p44
I2
sS'Premier'
p45
I1
sS'protest'
p46
I3
sS'math'
p47
I1
sS'Go'
p48
I1
sS'Paul'
p49
I2
sS'phones'
p50
I1
sS'warns'
p51
I1
sS'Christie'
p52
I1
sS"Warriors'"
p53
I1
sS'A'
I2
sS'Pathogen'
p54
I1
sS'even'
p55
I1
sS'Kaufman'
p56
I1
sS'thunder'
p57
I1
sS'Nafta'
p58
I1
sS'Game'
p59
I2
sS'Hamilton'
p60
I3
sS'new'
p61
I4
sS'ever'
p62
I2
sS'Needing'
p63
I1
sS'G6'
p64
I1
sS'join'
p65
I1
sS'never'
p66
I1
sS'Budget'
p67
I3
sS'hundreds'
p68
I1
sS'protection'
p69
I1
sS'Sidelined'
p70
I1
sS'100'
p71
I1
sS'Precise'
p72
I1
sS'ODI'
p73
I1
sS'kids'
p74
I2
sS'employees'
p75
I1
sS'controversy'
p76
I1
sS'Pushed'
p77
I1
sS'Qaeda'
p78
I1
sS'military'
p79
I1
sS'changes'
p80
I1
sS"'impressed'"
p81
I1
sS'Orleans'
p82
I1
sS'resurrected'
p83
I1
sS'campaign'
p84
I1
sS'Chaffetz'
p85
I1
sS'27-18'
p86
I2
sS'two-state'
p87
I1
sS'Three'
p88
I1
sS'patience'
p89
I1
sS'Health'
p90
I2
sS'Meet'
p91
I1
sS'Wales'
p92
I2
sS'Jen'
p93
I1
sS'plot'
p94
I1
sS"crash'"
p95
I1
sS'Usada'
p96
I1
sS'would'
p97
I1
sS'hospital'
p98
I1
sS'Removes'
p99
I1
sS'leaks'
p100
I3
sS'call'
p101
I1
sS'strike'
p102
I1
sS'Johanna'
p103
I1
sS'Brighton'
p104
I1
sS'-Cas9'
p105
I1
sS'brings'
p106
I2
sS'phone'
p107
I2
sS'Hacking'
p108
I1
sS'hold'
p109
I1
sS'must'
p110
I1
sS'me'
p111
I1
sS'1993'
p112
I1
sS'Financial'
p113
I1
sS'theories'
p114
I1
sS'my'
p115
I1
sS'addictive'
p116
I1
sS'Lie'
p117
I1
sS'Riverdale\xe2'
p118
I1
sS'Le'
p119
I2
sS'La'
p120
I6
sS'Lil'
p121
I1
sS'cited'
p122
I1
sS'LG'
p123
I2
sS'Benoit'
p124
I1
sS'Welsh'
p125
I2
sS'travel'
p126
I3
sS"'hold"
p127
I1
sS'Killing'
p128
I1
sS'how'
p129
I1
sS"He'll"
p130
I1
sS'Billion'
p131
I2
sS'mess'
p132
I1
sS'quits'
p133
I1
sS'after'
p134
I16
sS'Will'
p135
I2
sS'president'
p136
I1
sS'law'
p137
I1
sS'ex-wife'
p138
I1
sS'All'
p139
I1
sS'fewer'
p140
I1
sS'wins'
p141
I8
sS'Raith'
p142
I1
sS'Beyond'
p143
I1
sS'over'
p144
I4
sS'Kante'
p145
I1
sS'Pixel'
p146
I1
sS'bombing'
p147
I1
sS'His'
p148
I1
sS'highlights'
p149
I2
sS"'Nobody"
p150
I1
sS'Here'
p151
I1
sS'better'
p152
I1
sS'Judge'
p153
I1
sS'Him'
p154
I1
sS'Generals'
p155
I1
sS'Mobile'
p156
I1
sS'safe'
p157
I1
sS'Club'
p158
I1
sS'Omar'
p159
I2
sS'they'
p160
I1
sS'Argues'
p161
I1
sS'filling'
p162
I1
sS'each'
p163
I1
sS'Rovers'
p164
I2
sS'Dow'
p165
I1
sS'Hate'
p166
I1
sS'Gabbiadini'
p167
I2
sS'Transport'
p168
I1
sS'Millions'
p169
I1
sS'lifted'
p170
I1
sS'series'
p171
I1
sS'aide'
p172
I1
sS'Anyone'
p173
I1
sS'stealing'
p174
I1
sS'Musk'
p175
I1
sS'whining'
p176
I1
sS"Misbegotten'"
p177
I1
sS'ABook'
p178
I1
sS'Civilians'
p179
I1
sS'Super'
p180
I1
sS'Must'
p181
I1
sS'resume'
p182
I1
sS'Work'
p183
I1
sS'given'
p184
I1
sS'free'
p185
I2
sS'admits'
p186
I1
sS'Facts\xe2'
p187
I1
sS'struggle'
p188
I1
sS'W'
I1
sS'Tariffs'
p189
I1
sS'wanted'
p190
I1
sS'Soft'
p191
I1
sS'Nixon'
p192
I1
sS'Clinton'
p193
I1
sS'starts'
p194
I2
sS"go'"
p195
I1
sS'Chao'
p196
I1
sS'Driveway'
p197
I1
sS'1970s'
p198
I1
sS'Chair'
p199
I1
sS'daunting'
p200
I1
sS'Working'
p201
I1
sS'coding'
p202
I1
sS'Lunardi'
p203
I1
sS'Congress'
p204
I3
sS'top'
p205
I1
sS'Inflation'
p206
I1
sS"Off'"
p207
I1
sS'Press'
p208
I1
sS'murder'
p209
I1
sS'BBC'
p210
I7
sS"Puzder's"
p211
I3
sS'peril'
p212
I1
sS'roles'
p213
I1
sS'hike'
p214
I1
sS'tourists'
p215
I2
sS'Elected'
p216
I1
sS'Galaxy'
p217
I2
sS'sees'
p218
I1
sS'2-0'
p219
I2
sS'Mnuchin'
p220
I1
sS'tells'
p221
I1
sS'genuine'
p222
I1
sS"'Day"
p223
I1
sS'-'
I46
sS'Rate'
p224
I2
sS'Stoke'
p225
I1
sS'Bank'
p226
I4
sS'Jones'
p227
I2
sS'\xc2'
I1
sS'Reports'
p228
I1
sS'letter'
p229
I1
sS'Vision'
p230
I1
sS"It'll"
p231
I1
sS'Promises'
p232
I2
sS'treats'
p233
I1
sS'Lewis'
p234
I2
sS'Vauxhall'
p235
I1
sS'competitors'
p236
I1
sS'points'
p237
I2
sS'tech'
p238
I1
sS'Election'
p239
I1
sS'Filmmaking'
p240
I1
sS'voting'
p241
I1
sS'Its'
p242
I5
sS'saying'
p243
I1
sS'Ozobot'
p244
I1
sS'bomb'
p245
I1
sS'Union'
p246
I2
sS'Tapper'
p247
I1
sS'probe'
p248
I3
sS'ending'
p249
I1
sS'colors'
p250
I1
sS'radio'
p251
I1
sS'Marks'
p252
I1
sS'Here\xe2'
p253
I1
sS'Stance'
p254
I1
sS'Reaching'
p255
I1
sS'Big'
p256
I2
sS'Bid'
p257
I1
sS'Republicans'
p258
I3
sS'AWS'
p259
I1
sS'Amazon'
p260
I1
sS'Free'
p261
I2
sS'LIVE'
p262
I2
sS'glitz'
p263
I1
sS'do'
p264
I1
sS'Turns'
p265
I1
sS'watch'
p266
I2
sS'Days'
p267
I1
sS'hearings'
p268
I2
sS'despite'
p269
I1
sS'report'
p270
I1
sS'X'
I6
sS'Fingleton'
p271
I1
sS'Soviet'
p272
I1
sS"Durant's"
p273
I1
sS'Looms'
p274
I2
sS'Over'
p275
I2
sS'ban'
p276
I1
sS'Perez'
p277
I4
sS"Beast'"
p278
I1
sS'secretary'
p279
I2
sS"'SportsCenter'"
p280
I1
sS'testing'
p281
I3
sS'Pen'
p282
I2
sS'Short'
p283
I1
sS'result'
p284
I1
sS'Formula'
p285
I1
sS'John'
p286
I3
sS'Boost'
p287
I1
sS'best'
p288
I3
sS'said'
p289
I1
sS'draws'
p290
I2
sS'Supernatural\xe2'
p291
I1
sS'away'
p292
I1
sS'score'
p293
I1
sS'discovers'
p294
I1
sS'Peugeot'
p295
I1
sS'Roundup'
p296
I2
sS'Ranieri'
p297
I4
sS'we'
p298
I1
sS'Central'
p299
I1
sS'vows'
p300
I1
sS'confusion'
p301
I1
sS'Fake'
p302
I1
sS'boss'
p303
I2
sS'Populism'
p304
I1
sS'Remain'
p305
I1
sS'news'
p306
I2
sS'uncertainty'
p307
I1
sS'against'
p308
I5
sS'Laura'
p309
I2
sS'Corbyn'
p310
I4
sS"leaders'"
p311
I1
sS'Navy'
p312
I2
sS'com'
p313
I1
sS'Closer'
p314
I1
sS'Spotify'
p315
I1
sS"Farah's"
p316
I1
sS'Ireland'
p317
I1
sS'spoke'
p318
I1
sS'trust'
p319
I1
sS'Gives'
p320
I1
sS'conference'
p321
I2
sS'basis'
p322
I1
sS'union'
p323
I1
sS'Southern'
p324
I1
sS'three'
p325
I2
sS'been'
p326
I2
sS'Bracketology'
p327
I1
sS'Chance'
p328
I1
sS"'complicated'"
p329
I1
sS'Huawei\xe2'
p330
I1
sS'life'
p331
I1
sS'CN'
p332
I1
sS'Utd'
p333
I1
sS'attacked'
p334
I1
sS'Poland'
p335
I1
sS"administration'"
p336
I1
sS'Philadelphia'
p337
I1
sS'child'
p338
I1
sS'Cain'
p339
I3
sS'Secretary'
p340
I2
sS'Heinz'
p341
I1
sS'Rocket'
p342
I1
sS'launches'
p343
I2
sS'Dollar'
p344
I1
sS'Billions'
p345
I1
sS'aim'
p346
I1
sS'abrupt'
p347
I1
sS'leaves'
p348
I1
sS'Tuesday'
p349
I1
sS'launched'
p350
I1
sS'mistake'
p351
I2
sS'is'
p352
I14
sS'dumped'
p353
I1
sS'it'
p354
I3
sS'Bush'
p355
I1
sS'experts'
p356
I1
sS'in'
p357
I50
sS'Falling'
p358
I1
sS'Warriors'
p359
I1
sS'Tell'
p360
I1
sS'grown'
p361
I1
sS'patent'
p362
I1
sS'things'
p363
I1
sS'make'
p364
I1
sS'Ramps'
p365
I1
sS'President'
p366
I3
sS'several'
p367
I1
sS'raid'
p368
I1
sS'outspends'
p369
I1
sS'tops'
p370
I1
sS'Truck'
p371
I1
sS'Home'
p372
I2
sS'Air'
p373
I1
sS'Gates'
p374
I2
sS'kept'
p375
I1
sS'Leicester'
p376
I9
sS'Hydrogen'
p377
I1
sS'Gavin'
p378
I1
sS'mother'
p379
I1
sS'claims'
p380
I2
sS'the'
p381
I42
sS'800'
p382
I2
sS'Bobsleigh'
p383
I1
sS"doubts'"
p384
I1
sS'victim'
p385
I1
sS'Yemen'
p386
I1
sS'Oscar'
p387
I6
sS'assassination'
p388
I1
sS'Soundtrack'
p389
I1
sS'prison'
p390
I1
sS'News'
p391
I4
sS'Philip'
p392
I1
sS'Debt'
p393
I1
sS'Wilbur'
p394
I1
sS'James'
p395
I1
sS'breaks'
p396
I2
sS'Worth'
p397
I1
sS'apart'
p398
I1
sS'Lords'
p399
I1
sS'Trump'
p400
I61
sS'54'
p401
I1
sS'50'
p402
I1
sS'Claudio'
p403
I2
sS'Are'
p404
I4
sS'security'
p405
I3
sS'Pentagon'
p406
I3
sS'Warren'
p407
I2
sS"Utd's"
p408
I1
sS'right'
p409
I3
sS'crowd'
p410
I2
sS'people'
p411
I3
sS'sends'
p412
I1
sS'Hangouts'
p413
I1
sS'System'
p414
I1
sS'dead'
p415
I1
sS'Suspect'
p416
I1
sS'election'
p417
I3
sS'Off'
p418
I1
sS'harassment'
p419
I2
sS'contests'
p420
I1
sS'Motherwell'
p421
I1
sS'Lee'
p422
I1
sS'for'
p423
I35
sS"Jones'"
p424
I1
sS'Facebook'
p425
I2
sS'He'
p426
I2
sS'Casts'
p427
I1
sS'Gras'
p428
I1
sS'Unleash'
p429
I1
sS'memorable'
p430
I1
sS'First'
p431
I2
sS'attacks'
p432
I2
sS'accepts'
p433
I1
sS'undocumented'
p434
I1
sS'dinner'
p435
I3
sS'Pedestal'
p436
I1
sS'Still'
p437
I1
sS'Best'
p438
I4
sS'Fed'
p439
I2
sS'Cut'
p440
I2
sS'Cup'
p441
I8
sS'Scotland'
p442
I1
sS'son'
p443
I1
sS'raises'
p444
I2
sS'Provides'
p445
I1
sS'Schiff'
p446
I1
sS'ISIS'
p447
I1
sS'deal'
p448
I1
sS'Reported'
p449
I1
sS'support'
p450
I3
sS'Raid\xe2'
p451
I1
sS'fight'
p452
I2
sS'way'
p453
I1
sS'was'
p454
I3
sS'halls'
p455
I1
sS'launching'
p456
I1
sS'DNC'
p457
I2
sS'offer'
p458
I1
sS'Disability'
p459
I1
sS"'I'm"
p460
I1
sS"kiss'"
p461
I1
sS'Aramco'
p462
I1
sS'silliness'
p463
I1
sS'bids'
p464
I1
sS"Crooks'"
p465
I1
sS'County'
p466
I1
sS'Cotter'
p467
I1
sS'Engineering'
p468
I1
sS'lays'
p469
I1
sS'Vos'
p470
I1
sS'Tony'
p471
I2
sS'pricing'
p472
I1
sS'Sir'
p473
I1
sS'promises'
p474
I2
sS'Bullish'
p475
I1
sS'tournament'
p476
I2
sS'Surpasses'
p477
I1
sS'proves'
p478
I1
sS'Grumbling'
p479
I1
sS'trip'
p480
I1
sS'Begin'
p481
I1
sS'Handle'
p482
I1
sS'when'
p483
I1
sS'Andrew'
p484
I4
sS'actor'
p485
I3
sS'warms'
p486
I1
sS'Olga'
p487
I1
sS'test'
p488
I3
sS'Economy'
p489
I1
sS'picture'
p490
I3
sS"'s"
p491
I4
sS'dies'
p492
I11
sS'outage'
p493
I1
sS'Drive'
p494
I1
sS'scores'
p495
I1
sS'died'
p496
I1
sS'billion'
p497
I2
sS'Recuse'
p498
I1
sS'Pacquiao'
p499
I1
sS'Win'
p500
I2
sS'Corvey'
p501
I1
sS"Exxon's"
p502
I1
sS'Jess'
p503
I1
sS'premiums'
p504
I1
sS"'A"
p505
I1
sS'time'
p506
I1
sS'Times'
p507
I1
sS'coach'
p508
I1
sS'skip'
p509
I1
sS'global'
p510
I1
sS'leads'
p511
I1
sS'manager'
p512
I1
sS'ice'
p513
I1
sS'Films'
p514
I1
sS'dismantling'
p515
I1
sS'Cowell'
p516
I1
sS'Columbia'
p517
I1
sS'essentials'
p518
I1
sS'Dan'
p519
I1
sS'Milestone'
p520
I1
sS'terror'
p521
I2
sS'Let'
p522
I1
sS'Hedge'
p523
I2
sS'Day'
p524
I4
sS'adviser'
p525
I3
sS"staffers'"
p526
I1
sS'Tech'
p527
I1
sS'anonymous'
p528
I1
sS'word'
p529
I1
sS'Where'
p530
I1
sS'swapping'
p531
I1
sS'Just'
p532
I1
sS'did'
p533
I1
sS'posts'
p534
I1
sS'accidentally'
p535
I1
sS'team'
p536
I2
sS'speculation'
p537
I1
sS'round'
p538
I1
sS'Kevin'
p539
I2
sS'Rey'
p540
I1
sS'says'
p541
I6
sS'roadshow'
p542
I1
sS"'really"
p543
I1
sS'adulation'
p544
I1
sS'Shakespeare'
p545
I1
sS'Rich'
p546
I1
sS'chicken'
p547
I1
sS'Seeks'
p548
I3
sS'resurgence'
p549
I1
sS'Head'
p550
I1
sS'supporter'
p551
I2
sS'P10'
p552
I1
sS'Cruz'
p553
I1
sS'suspect'
p554
I1
sS'Independence'
p555
I1
sS'goes'
p556
I1
sS'international'
p557
I1
sS'boost'
p558
I1
sS'Bill'
p559
I6
sS"West'"
p560
I1
sS'Mc'
p561
I8
sS'Mo'
p562
I2
sS'Infrastructure'
p563
I1
sS'Bellew'
p564
I1
sS'groups'
p565
I1
sS'address'
p566
I2
sS"hadn't"
p567
I1
sS'stem'
p568
I1
sS'Changes'
p569
I1
sS'Sees'
p570
I1
sS"'Big'"
p571
I1
sS'guilty'
p572
I1
sS'Travis'
p573
I1
sS'MP'
p574
I1
sS'MS'
p575
I1
sS'Abdel'
p576
I1
sS'Inc'
p577
I1
sS'Justice'
p578
I1
sS"It's"
p579
I3
sS'retires'
p580
I1
sS'Jong'
p581
I2
sS'Alberto'
p582
I1
sS'fake'
p583
I1
sS'crisis'
p584
I1
sS'Sanders'
p585
I3
sS"review'"
p586
I1
sS'troops'
p587
I1
sS'working'
p588
I1
sS'give'
p589
I2
sS'by'
p590
I8
sS'live'
p591
I4
sS'Awards'
p592
I1
sS'Bilden'
p593
I1
sS'scope'
p594
I1
sS'today'
p595
I1
sS"Nam's"
p596
I1
sS'Revamped'
p597
I1
sS'Ben'
p598
I2
sS'riot'
p599
I1
sS'These'
p600
I1
sS'Mount'
p601
I1
sS'Summary'
p602
I1
sS'Time'
p603
I1
sS'fly'
p604
I2
sS'migrants'
p605
I2
sS"wrong'"
p606
I1
sS'Concise'
p607
I1
sS'avoiding'
p608
I1
sS'abortion'
p609
I1
sS'believes'
p610
I1
sS'Prix'
p611
I2
sS'recap'
p612
I4
sS'can'
p613
I1
sS'Liberation\xe2'
p614
I1
sS'Tells'
p615
I1
sS'Out'
p616
I2
sS'claim'
p617
I1
sS'figure'
p618
I1
sS'Media'
p619
I1
sS'supremacy'
p620
I1
sS'Dutch'
p621
I1
sS'Britons'
p622
I1
sS'stole'
p623
I1
sS'Shows'
p624
I3
sS'mocks'
p625
I1
sS'winter'
p626
I1
sS'Who'
p627
I1
sS'1'
I3
sS'rallies'
p628
I1
sS'speaks'
p629
I1
sS'Why'
p630
I7
sS'economy'
p631
I1
sS'may'
p632
I3
sS'Always'
p633
I1
sS'spot'
p634
I1
sS'date'
p635
I1
sS'nomination'
p636
I2
sS'man'
p637
I1
sS'Series'
p638
I1
sS'Probe'
p639
I2
sS'Sources'
p640
I1
sS'Radio'
p641
I3
sS"no'"
p642
I1
sS'Brexit'
p643
I5
sS'feature'
p644
I1
sS'Earth\xe2'
p645
I1
sS'flagships'
p646
I2
sS'cuts'
p647
I1
sS'White'
p648
I8
sS'still'
p649
I1
sS'Direction'
p650
I1
sS'monitor'
p651
I1
sS"he's"
p652
I2
sS'window'
p653
I1
sS'RB'
p654
I1
sS'World'
p655
I5
sS'Hodgson'
p656
I1
sS'matches'
p657
I1
sS'Deutsche'
p658
I1
sS'nation'
p659
I1
sS'Alliance'
p660
I1
sS'not'
p661
I1
sS'killed'
p662
I2
sS'Executed'
p663
I1
sS"disabled'"
p664
I1
sS'OPEC'
p665
I1
sS'Skip'
p666
I1
sS'Wagner'
p667
I1
sS'Watches'
p668
I1
sS'Stanley'
p669
I1
sS'Paying'
p670
I1
sS'Live'
p671
I3
sS'year'
p672
I2
sS'Learned'
p673
I1
sS'Caroline'
p674
I1
sS'year\xe2'
p675
I1
sS'Carolina'
p676
I1
sS'Satellite'
p677
I1
sS'Added'
p678
I1
sS"'rigged'"
p679
I1
sS'space'
p680
I1
sS'irony'
p681
I1
sS"'test"
p682
I1
sS'Job'
p683
I1
sS'investigation'
p684
I2
sS'Joe'
p685
I1
sS'Key'
p686
I2
sS'shows'
p687
I1
sS'Commerce'
p688
I1
sS'Samsung'
p689
I5
sS'lawmaker'
p690
I1
sS'million'
p691
I2
sS'Judd'
p692
I1
sS'Pivots'
p693
I1
sS'government'
p694
I1
sS'rebel'
p695
I1
sS'fifth-round'
p696
I2
sS'Atletico'
p697
I1
sS'Security'
p698
I2
sS'care'
p699
I2
sS'Blind'
p700
I2
sS'Already'
p701
I1
sS'Battery'
p702
I1
sS'Nokia\xe2'
p703
I1
sS'thing'
p704
I1
sS'husband'
p705
I1
sS'Triple'
p706
I1
sS'Touch'
p707
I1
sS'Eric'
p708
I1
sS'first'
p709
I4
sS'Giant'
p710
I2
sS'one'
p711
I2
sS'Black'
p712
I1
sS'suspended'
p713
I1
sS'Harewood'
p714
I1
sS'staff-wide'
p715
I1
sS'Hollywood'
p716
I1
sS'lags'
p717
I1
sS'Raggett'
p718
I1
sS'little'
p719
I1
sS'Monday'
p720
I1
sS'Investigations'
p721
I1
sS'response'
p722
I1
sS'returns'
p723
I1
sS'2'
I4
sS'white'
p724
I1
sS'Repeal'
p725
I2
sS'1m'
p726
I1
sS'Response'
p727
I1
sS'friend'
p728
I2
sS'Knockoff'
p729
I1
sS'Subscribers'
p730
I1
sS'that'
p731
I2
sS'season'
p732
I1
sS"men's"
p733
I1
sS'Renewing'
p734
I1
sS'Won\xe2'
p735
I1
sS'than'
p736
I2
sS'Opts'
p737
I1
sS'10'
p738
I3
sS'13'
p739
I1
sS'14'
p740
I1
sS'27-year'
p741
I1
sS"Furious'"
p742
I1
sS'future'
p743
I1
sS'were'
p744
I1
sS'shakeup'
p745
I1
sS'and'
p746
I30
sS'turned'
p747
I1
sS'DC'
p748
I1
sS'Submit'
p749
I1
sS'say'
p750
I1
sS'conspiracy'
p751
I1
sS'Calm'
p752
I1
sS'sells'
p753
I1
sS'blunder'
p754
I1
sS'Shaun'
p755
I1
sS'Jewish'
p756
I1
sS'De'
p757
I1
sS'Richest'
p758
I1
sS'zoo'
p759
I1
sS'squad'
p760
I1
sS'switching'
p761
I1
sS'Democrats'
p762
I1
sS'Rugby'
p763
I2
sS'knew'
p764
I2
sS'Rallies'
p765
I1
sS'DHS'
p766
I1
sS'GOP'
p767
I4
sS"science'"
p768
I1
sS'Allegations'
p769
I1
sS"terrorism'"
p770
I1
sS'senior'
p771
I1
sS'Broncos'
p772
I1
sS'shot'
p773
I1
sS'show'
p774
I1
sS'allegations'
p775
I1
sS'infant'
p776
I1
sS'Stephen'
p777
I1
sS'one-frame'
p778
I1
sS'ground'
p779
I1
sS'Wants'
p780
I2
sS'We'
p781
I4
sS'Woman'
p782
I2
sS'title'
p783
I1
sS'behind'
p784
I1
sS'crime'
p785
I1
sS'only'
p786
I2
sS'going'
p787
I1
sS'black'
p788
I1
sS'dispute'
p789
I1
sS'hippo'
p790
I1
sS'get'
p791
I2
sS'Away\xe2'
p792
I1
sS'Large'
p793
I1
sS'Turn'
p794
I1
sS'killers'
p795
I1
sS"'unreal'"
p796
I1
sS'Amit'
p797
I1
sS'Amir'
p798
I1
sS'Republican'
p799
I2
sS'Champs'
p800
I1
sS'worried'
p801
I1
sS'Manchester'
p802
I2
sS"press'"
p803
I1
sS'vision'
p804
I1
sS'declared'
p805
I1
sS"France's"
p806
I1
sS"job'"
p807
I1
sS'college'
p808
I1
sS"'vulnerable'"
p809
I1
sS'Grand'
p810
I2
sS'Fares'
p811
I1
sS'fails'
p812
I1
sS'detect'
p813
I1
sS'federal'
p814
I1
sS'3'
I2
sS'Leeds'
p815
I1
sS'altercation'
p816
I1
sS'Told'
p817
I1
sS'Than'
p818
I1
sS'notice'
p819
I1
sS'Johnson'
p820
I1
sS'screen'
p821
I1
sS'killing'
p822
I1
sS'Earth-like'
p823
I1
sS'awards'
p824
I1
sS'Each'
p825
I1
sS'3310'
p826
I1
sS"'pending"
p827
I1
sS'Grounds'
p828
I1
sS'reaction'
p829
I1
sS'Post-Tillerson'
p830
I1
sS'rugby'
p831
I1
sS'Give'
p832
I1
sS'Kane'
p833
I1
sS'S'
I11
sS'Malaysia'
p834
I1
sS's'
I14
sS'workplace'
p835
I1
sS"'Aliens"
p836
I1
sS'wheels'
p837
I1
sS"can't"
p838
I1
sS'deported'
p839
I1
sS"'The"
p840
I3
sS'among'
p841
I2
sS'Jeremy'
p842
I3
sS'provocation'
p843
I1
sS'cancer'
p844
I1
sS'Jose'
p845
I1
sS'Sachs'
p846
I1
sS'61'
p847
I2
sS'grants'
p848
I1
sS'comeback'
p849
I1
sS'Pledges'
p850
I1
sS"Liverpool's"
p851
I1
sS'come'
p852
I1
sS'Downgrades'
p853
I1
sS'absence'
p854
I1
sS'Paid'
p855
I1
sS'Tanks'
p856
I1
sS'500'
p857
I1
sS'wants'
p858
I3
sS'Six'
p859
I8
sS'Luring'
p860
I1
sS'Trump-Russia'
p861
I2
sS'dramatic'
p862
I1
sS'Halts'
p863
I1
sS'former'
p864
I1
sS'4-0'
p865
I1
sS'Tesla'
p866
I3
sS'Birmingham'
p867
I1
sS'sex'
p868
I2
sS"coup'"
p869
I1
sS'career'
p870
I1
sS'Potential'
p871
I1
sS'Marshals'
p872
I1
sS'I\xe2'
p873
I1
sS'Open'
p874
I1
sS'Disappear'
p875
I1
sS'Slow'
p876
I1
sS'Stokes'
p877
I1
sS'Tennis'
p878
I1
sS'Referendum'
p879
I1
sS"Netflix's"
p880
I1
sS'Better'
p881
I1
sS'Charge'
p882
I1
sS'rally'
p883
I3
sS'Israel'
p884
I1
sS'Plans'
p885
I2
sS'media'
p886
I3
sS'tour'
p887
I1
sS'inquiry'
p888
I2
sS'Blood'
p889
I1
sS'Disappointed'
p890
I1
sS'week'
p891
I2
sS'finish'
p892
I2
sS'Zuckerberg\xe2'
p893
I1
sS'I'
I2
sS'Rowing'
p894
I1
sS'Barcelona'
p895
I4
sS'companion'
p896
I1
sS'producers'
p897
I1
sS'IRA'
p898
I1
sS"been'"
p899
I1
sS'ID'
p900
I1
sS'Own'
p901
I1
sS'Says'
p902
I9
sS'charges'
p903
I1
sS'Is'
p904
I4
sS'TV'
p905
I4
sS'accountable'
p906
I1
sS'In'
p907
I7
sS'If'
p908
I2
sS'duty'
p909
I1
sS'United'
p910
I4
sS'Service'
p911
I1
sS'Ways'
p912
I1
sS'Ping'
p913
I1
sS'actions'
p914
I1
sS'Reduction'
p915
I1
sS'kill'
p916
I1
sS'touch'
p917
I1
sS'Markets'
p918
I3
sS'EPA'
p919
I2
sS'announcement'
p920
I2
sS'death'
p921
I3
sS'asthma'
p922
I1
sS"'undermines"
p923
I1
sS"we've"
p924
I1
sS'Malek'
p925
I1
sS'treatment'
p926
I1
sS'aborts'
p927
I1
sS'Jong-nam'
p928
I3
sS'Jaziri'
p929
I1
sS'around'
p930
I3
sS'rules'
p931
I2
sS'Uber\xe2'
p932
I2
sS'Monk'
p933
I1
sS'gonna'
p934
I1
sS'early'
p935
I2
sS'mom'
p936
I1
sS'vacuum'
p937
I1
sS'world'
p938
I1
sS'SVP'
p939
I1
sS'Shark'
p940
I1
sS'Bellingham'
p941
I1
sS'intel'
p942
I1
sS'facing'
p943
I1
sS'hails'
p944
I1
sS'benefit'
p945
I1
sS't'
I3
sS'Before'
p946
I2
sS'Democracy'
p947
I1
sS'West'
p948
I3
sS'Mark'
p949
I1
sS'New'
p950
I8
sS'Swansea'
p951
I1
sS'Things'
p952
I1
sS'Attorney'
p953
I2
sS'dimensions'
p954
I1
sS'Prosecutions'
p955
I1
sS'legal'
p956
I1
sS'moon'
p957
I2
sS"'football"
p958
I1
sS'critical'
p959
I1
sS'Term'
p960
I1
sS'Hamann'
p961
I1
sS'leadership'
p962
I1
sS'Paire'
p963
I1
sS'went'
p964
I1
sS'Tribe'
p965
I1
sS'Fabregas'
p966
I1
sS'of'
p967
I39
sS"Project'"
p968
I1
sS'Trade'
p969
I2
sS'Wednesbury'
p970
I1
sS'stand'
p971
I2
sS'Draymond'
p972
I1
sS'or'
p973
I3
sS'organizers'
p974
I1
sS'quietly'
p975
I1
sS'No'
p976
I1
sS'Memories'
p977
I1
sS'watchdog'
p978
I1
sS'your'
p979
I1
sS'Week'
p980
I3
sS'her'
p981
I2
sS'Norma'
p982
I1
sS'Jamie'
p983
I1
sS'start'
p984
I1
sS'low'
p985
I1
sS'lot'
p986
I1
sS'Obama'
p987
I1
sS'J'
I1
sS"gladiators'"
p988
I1
sS'Error'
p989
I1
sS'clones'
p990
I1
sS'with'
p991
I11
sS'Guide'
p992
I1
sS'IICSA'
p993
I1
sS'hire'
p994
I2
sS'Hales'
p995
I1
sS'House'
p996
I9
sS'Heseltine'
p997
I1
sS'Foxes'
p998
I2
sS'unveils'
p999
I2
sS'Eddie'
p1000
I1
sS'Crisis'
p1001
I1
sS'Special'
p1002
I1
sS'Blow'
p1003
I1
sS'leaked'
p1004
I1
sS'Asks'
p1005
I1
sS'Space'
p1006
I7
sS'Gustavito'
p1007
I1
sS'al'
p1008
I1
sS'general'
p1009
I1
sS'How'
p1010
I4
sS'as'
p1011
I15
sS'reliability'
p1012
I1
sS'at'
p1013
I19
sS'planets'
p1014
I1
sS'enterprise-friendly'
p1015
I1
sS'politics'
p1016
I1
sS'pre-season'
p1017
I1
sS'Quavo'
p1018
I1
sS'Burnley'
p1019
I2
sS"Pimco's"
p1020
I1
sS'Lab'
p1021
I1
sS'Dark'
p1022
I1
sS'8-year-old'
p1023
I1
sS'Watson'
p1024
I2
sS'Teases'
p1025
I1
sS'5'
I8
sS'you'
p1026
I1
sS'Ross'
p1027
I1
sS'Tottenham'
p1028
I1
sS'Kurdish'
p1029
I1
sS'Great'
p1030
I1
sS'Suffers'
p1031
I1
sS'Alex'
p1032
I2
sS'parkour'
p1033
I1
sS'students'
p1034
I1
sS'Hoppers'
p1035
I1
sS'Village'
p1036
I1
sS'Literary'
p1037
I1
sS'coverage'
p1038
I1
sS'CNN'
p1039
I27
sS'building'
p1040
I1
sS'mourned'
p1041
I1
sS'Major'
p1042
I1
sS'Vardy'
p1043
I1
sS"Moonlight'"
p1044
I1
sS'invest'
p1045
I1
sS'3-1'
p1046
I3
sS'Street'
p1047
I2
sS"'I"
p1048
I1
sS'Year'
p1049
I1
sS'Harassment'
p1050
I1
sS'all'
p1051
I1
sS'Van'
p1052
I1
sS'skeleton'
p1053
I1
sS'ESPN'
p1054
I2
sS'Tube'
p1055
I2
sS'Obamacare'
p1056
I5
sS'Moon'
p1057
I2
sS'Take'
p1058
I1
sS'talks'
p1059
I2
sS'carpet'
p1060
I2
sS'Brown'
p1061
I1
sS'Elli'
p1062
I1
sS'Championship'
p1063
I1
sS'gymnast'
p1064
I1
sS'NCAA'
p1065
I1
sS'insulate'
p1066
I1
sS'to'
p1067
I82
sS'lawmakers'
p1068
I1
sS'Backlash'
p1069
I1
sS'case'
p1070
I2
sS'Buffett'
p1071
I4
sS'very'
p1072
I1
sS'worst'
p1073
I1
sS'condition'
p1074
I1
sS"Don't"
p1075
I2
sS'celebrity'
p1076
I1
sS'Retire'
p1077
I1
sS'list'
p1078
I2
sS'Kill'
p1079
I2
sS'Carpet'
p1080
I1
sS'Impact'
p1081
I1
sS'grabs'
p1082
I1
sS'Should'
p1083
I1
sS'Ferrell'
p1084
I1
sS"Trump's"
p1085
I9
sS'what'
p1086
I4
sS'Korea'
p1087
I2
sS'Sportsday'
p1088
I1
sS'Samsung\xe2'
p1089
I1
sS'ovarian'
p1090
I1
sS"'too"
p1091
I1
sS'version'
p1092
I1
sS'Worked'
p1093
I1
sS'public'
p1094
I2
sS'full'
p1095
I1
sS'Prosecutors'
p1096
I1
sS'Ahead'
p1097
I2
sS'Briefing'
p1098
I1
sS'praises'
p1099
I1
sS'Bluster'
p1100
I1
sS'Laren'
p1101
I1
sS"'most"
p1102
I1
sS'Limos'
p1103
I1
sS'ahead'
p1104
I1
sS"Shell's"
p1105
I1
sS'airport'
p1106
I1
sS'breakdown'
p1107
I1
sS'action'
p1108
I1
sS'Border'
p1109
I1
sS'options'
p1110
I1
sS'S8'
p1111
I2
sS'S3'
p1112
I1
sS"Theory'"
p1113
I1
sS'Top'
p1114
I2
sS'Watergate-style'
p1115
I1
sS'screens'
p1116
I1
sS'ask'
p1117
I1
sS'send'
p1118
I1
sS'toys'
p1119
I1
sS'Climb'
p1120
I1
sS'select'
p1121
I1
sS'takes'
p1122
I2
sS'prebuttal'
p1123
I1
sS'two'
p1124
I3
sS'Peak'
p1125
I1
sS'Geert'
p1126
I1
sS"People's"
p1127
I1
sS'Russian'
p1128
I3
sS'injury'
p1129
I1
sS'more'
p1130
I4
sS'Boeing'
p1131
I1
sS'Hails'
p1132
I1
sS'company'
p1133
I1
sS'Wyatt'
p1134
I1
sS'American'
p1135
I1
sS'Roger'
p1136
I1
sS'known'
p1137
I1
sS'town'
p1138
I1
sS'Looking'
p1139
I2
sS'Now'
p1140
I2
sS'vs'
p1141
I1
sS'v'
I5
sS'Wade'
p1142
I2
sS'Your'
p1143
I2
sS'history'
p1144
I1
sS'Conference'
p1145
I1
sS'shark'
p1146
I1
sS"'untrue'"
p1147
I1
sS'Years'
p1148
I2
sS"agencies'"
p1149
I1
sS'needs'
p1150
I1
sS'Opening'
p1151
I1
sS'Bonus'
p1152
I2
sS'breaking'
p1153
I1
sS'reject'
p1154
I1
sS'before'
p1155
I1
sS'orchestrator'
p1156
I1
sS'Bankers'
p1157
I1
sS'Campaign-level'
p1158
I1
sS'tries'
p1159
I1
sS'CRISPR'
p1160
I1
sS'Kelly'
p1161
I3
sS'Syria'
p1162
I1
sS'Antarctic'
p1163
I1
sS'America\xe2'
p1164
I1
sS'a'
I27
sS'Mexico'
p1165
I1
sS'Brennan'
p1166
I1
sS'Sean'
p1167
I1
sS'pay'
p1168
I1
sS'dream'
p1169
I1
sS'Film'
p1170
I1
sS'chicks'
p1171
I1
sS'What'
p1172
I2
sS'People\xe2'
p1173
I1
sS"don't"
p1174
I1
sS'radar'
p1175
I1
sS'through'
p1176
I1
sS'committee'
p1177
I2
sS'Wilders'
p1178
I1
sS'its'
p1179
I2
sS'25'
p1180
I1
sS'27'
p1181
I1
sS'March'
p1182
I2
sS'21'
p1183
I1
sS'Stein'
p1184
I1
sS'late'
p1185
I1
sS'Kimi'
p1186
I1
sS'speech'
p1187
I3
sS'might'
p1188
I2
sS'alter'
p1189
I1
sS'Reaction'
p1190
I1
sS'return'
p1191
I1
sS'seeking'
p1192
I1
sS'propose'
p1193
I2
sS'Michael'
p1194
I2
sS'Worried'
p1195
I1
sS'framework'
p1196
I1
sS'foot'
p1197
I1
sS'Senior'
p1198
I1
sS'speculate'
p1199
I1
sS'bigger'
p1200
I1
sS'Pussycats'
p1201
I1
sS"'Islamofascism'"
p1202
I1
sS'always'
p1203
I1
sS'Aliens'
p1204
I1
sS'Potter'
p1205
I1
sS'IPO'
p1206
I3
sS'spy'
p1207
I1
sS'Council'
p1208
I1
sS'Scottish'
p1209
I1
sS"'renewal"
p1210
I1
sS'shocking'
p1211
I1
sS'Liam'
p1212
I1
sS"isn't"
p1213
I2
sS'status'
p1214
I1
sS'Co-Founders'
p1215
I1
sS'Tax'
p1216
I2
sS'Saints'
p1217
I2
sS'Joseph'
p1218
I1
sS'Surface'
p1219
I2
sS'Federer'
p1220
I1
sS"'Hundreds'"
p1221
I1
sS'More'
p1222
I4
sS'Lowest'
p1223
I1
sS'Picture'
p1224
I2
sS'dominates'
p1225
I1
sS'since'
p1226
I3
sS'publish'
p1227
I1
sS'health'
p1228
I2
sS'Israeli-Palestinian'
p1229
I1
sS'Report'
p1230
I1
sS"'scum'"
p1231
I1
sS"'must"
p1232
I1
sS'off-screen'
p1233
I1
sS'Ukraine'
p1234
I1
sS'timeline'
p1235
I1
sS'Nine'
p1236
I1
sS'members'
p1237
I1
sS'EU'
p1238
I1
sS'Serious'
p1239
I1
sS'teach'
p1240
I1
sS'Male'
p1241
I1
sS'Lavrov'
p1242
I1
sS'El'
p1243
I1
sS'owners'
p1244
I1
sS'benefits'
p1245
I1
sS'service'
p1246
I1
sS'Evans'
p1247
I1
sS'People'
p1248
I3
sS'Boston'
p1249
I1
sS'modularity'
p1250
I1
sS'success'
p1251
I1
sS'George'
p1252
I1
sS'Past'
p1253
I1
sS'NASA'
p1254
I1
sS'Expect'
p1255
I1
sS'threat'
p1256
I1
sS'Elon'
p1257
I1
sS'fallen'
p1258
I1
sS'Dietmar'
p1259
I1
sS'Konta'
p1260
I1
sS'Goes'
p1261
I1
sS'Triggs-Hodge'
p1262
I1
sS'heads'
p1263
I1
sS'Cummings'
p1264
I1
sS'storm'
p1265
I1
sS'Everton'
p1266
I1
sS'selling'
p1267
I1
sS'Norkett'
p1268
I1
sS'Gamblers'
p1269
I1
sS'waterproofing'
p1270
I1
sS'defends'
p1271
I1
sS'Officials'
p1272
I1
sS'marriage'
p1273
I1
sS'2022'
p1274
I1
sS'motivation'
p1275
I1
sS'nominee'
p1276
I3
sS'Movie'
p1277
I1
sS'SEAL'
p1278
I2
sS'don\xe2'
p1279
I1
sS'WBC'
p1280
I1
sS'Forge'
p1281
I1
sS'aged'
p1282
I2
sS'Supporters'
p1283
I1
sS'Power'
p1284
I1
sS'Food'
p1285
I1
sS'officers'
p1286
I1
sS'lifts'
p1287
I1
sS'Germany'
p1288
I2
sS"plots'"
p1289
I1
sS'Kim'
p1290
I5
sS'Junkyard'
p1291
I1
sS'With'
p1292
I5
sS'Spirit'
p1293
I1
sS'Remix'
p1294
I1
sS"correspondents'"
p1295
I2
sS'Episode'
p1296
I2
sS'eggs'
p1297
I1
sS'measures'
p1298
I1
sS"'Meg'"
p1299
I1
sS'Optimism'
p1300
I1
sS'most'
p1301
I1
sS'Chief'
p1302
I1
sS'plan'
p1303
I2
sS'70'
p1304
I1
sS'Coptic'
p1305
I1
sS'The'
p1306
I14
sS'Called'
p1307
I1
sS'Restore'
p1308
I1
sS'Google'
p1309
I4
sS'mobile'
p1310
I1
sS'Alexis'
p1311
I1
sS'attacking'
p1312
I1
sS'Cloud'
p1313
I1
sS"'brain"
p1314
I1
sS'Tillerson'
p1315
I1
sS"'at"
p1316
I1
sS'Had'
p1317
I1
sS'session'
p1318
I1
sS'Hill'
p1319
I2
sS'Flintoff'
p1320
I1
sS'Has'
p1321
I2
sS'costing'
p1322
I1
sS'impact'
p1323
I1
sS'rocket'
p1324
I1
sS'Premiere'
p1325
I1
sS'Jr'
p1326
I1
sS'failed'
p1327
I1
sS'8'
I2
sS'Pool'
p1328
I1
sS'giants'
p1329
I1
sS'sacking'
p1330
I3
sS'his'
p1331
I1
sS'dominant'
p1332
I1
sS'Ex-boxer'
p1333
I2
sS'banned'
p1334
I1
sS'While'
p1335
I1
sS'fastest'
p1336
I2
sS'Paxton'
p1337
I3
sS'during'
p1338
I3
sS'Hotspur'
p1339
I1
sS"'very"
p1340
I1
sS'Olympic'
p1341
I2
sS'Help'
p1342
I1
sS"Pence's"
p1343
I1
sS"'did"
p1344
I1
sS'bird'
p1345
I1
sS'investigate'
p1346
I2
sS'spiked'
p1347
I1
sS'Craig'
p1348
I1
sS'Lions'
p1349
I1
sS'Equating'
p1350
I1
sS'set'
p1351
I3
sS'For'
p1352
I1
sS'achieved'
p1353
I1
sS'National'
p1354
I2
sS'startup'
p1355
I1
sS'Chaos'
p1356
I2
sS'France'
p1357
I2
sS'Auditions'
p1358
I1
sS'see'
p1359
I1
sS'are'
p1360
I6
sS'sea'
p1361
I1
sS'Correspondents'
p1362
I1
sS'Firms'
p1363
I1
sS'pictures'
p1364
I1
sS'Blair'
p1365
I1
sS'won'
p1366
I1
sS'Clones'
p1367
I1
sS'probably'
p1368
I1
sS"'real"
p1369
I1
sS'Age'
p1370
I3
sS'King'
p1371
I1
sS'Blackburn'
p1372
I1
sS'Moroccans'
p1373
I1
sS'Could'
p1374
I3
sS'Florida'
p1375
I2
sS'Departs'
p1376
I1
sS'Anew'
p1377
I1
sS'Tale'
p1378
I1
sS'Jobs'
p1379
I1
sS'Mardi'
p1380
I1
sS'league'
p1381
I1
sS'Unexpected'
p1382
I1
sS'Neil'
p1383
I1
sS'Hard'
p1384
I1
sS"Snap's"
p1385
I2
sS"spirit'"
p1386
I1
sS'became'
p1387
I1
sS'Voice\xe2'
p1388
I1
sS'Green'
p1389
I1
sS'Denies'
p1390
I2
sS'reasons'
p1391
I1
sS"'Twister'"
p1392
I1
sS'community'
p1393
I2
sS'Nobel'
p1394
I1
sS'Korbut'
p1395
I1
sS'agents'
p1396
I1
sS'Way'
p1397
I1
sS'000m'
p1398
I2
sS'suppressing'
p1399
I1
sS'War'
p1400
I1
sS'Shakes'
p1401
I2
sS'political'
p1402
I1
sS'due'
p1403
I1
sS'Difficulty'
p1404
I1
sS'Takeover'
p1405
I1
sS'California'
p1406
I1
sS'Plan'
p1407
I3
sS'meeting'
p1408
I1
sS'fret'
p1409
I1
sS'4'
I2
sS'cyclist'
p1410
I1
sS'nukes'
p1411
I1
sS'Allies'
p1412
I1
sS'1950s'
p1413
I1
sS'fire'
p1414
I1
sS'Newcastle'
p1415
I1
sS'Saudi'
p1416
I2
sS'Wolves'
p1417
I1
sS'Drops'
p1418
I1
sS'Commencement'
p1419
I1
sS'Old'
p1420
I1
sS'bill'
p1421
I2
sS'Reassure'
p1422
I1
sS'budget'
p1423
I3
sS'Snapchat'
p1424
I1
sS'Circling'
p1425
I1
sS'Cuts'
p1426
I2
sS'Market'
p1427
I2
sS'pack'
p1428
I1
sS'City'
p1429
I7
sS'Italy'
p1430
I4
sS'Threatens'
p1431
I2
sS'Nashville\xe2'
p1432
I1
sS'Strategy'
p1433
I1
sS"Holmes'"
p1434
I1
sS'Prison'
p1435
I1
sS'ready'
p1436
I1
sS'Millwall'
p1437
I2
sS'Bipartisan'
p1438
I1
sS'FAS'
p1439
I1
sS'Jumps'
p1440
I1
sS'Programs'
p1441
I1
sS'graves'
p1442
I1
sS'Rahman'
p1443
I1
sS'About'
p1444
I2
sS'used'
p1445
I1
sS'live\xe2'
p1446
I1
sS'Immigrants'
p1447
I1
sS'moment'
p1448
I2
sS'000'
p1449
I4
sS'uses'
p1450
I1
sS"'died'"
p1451
I1
sS'Flight'
p1452
I1
sS'Project'
p1453
I1
sS'task'
p1454
I1
sS'Almost'
p1455
I2
sS'Miller'
p1456
I1
sS'Goodlatte'
p1457
I1
sS'Migration'
p1458
I1
sS'Oscars'
p1459
I11
sS'Manny'
p1460
I1
sS'withdraw'
p1461
I1
sS'Talks'
p1462
I1
sS'Girl'
p1463
I1
sS'clearance'
p1464
I1
sS'ambassador'
p1465
I1
sS'Takes'
p1466
I2
sS'Breadwinner'
p1467
I1
sS'settlements'
p1468
I2
sS'Labor'
p1469
I1
sS'press'
p1470
I2
sS'openly'
p1471
I1
sS"We're"
p1472
I1
sS'questions'
p1473
I2
sS'startups'
p1474
I1
sS'gems'
p1475
I1
sS'cut'
p1476
I1
sS'cup'
p1477
I1
sS'advisers'
p1478
I1
sS'workers'
p1479
I1
sS'Nokia'
p1480
I1
sS"'rare'"
p1481
I1
sS'win'
p1482
I4
sS'Marine'
p1483
I1
sS'On'
p1484
I2
sS'Faster'
p1485
I1
sS'demands'
p1486
I1
sS'contacts'
p1487
I1
sS"homes'"
p1488
I1
sS'game'
p1489
I2
sS'Behavioral'
p1490
I1
sS'Russiagate'
p1491
I1
sS"Israel's"
p1492
I1
sS'Christian'
p1493
I1
sS'carers'
p1494
I1
sS"Helmets'"
p1495
I1
sS'Skeleton'
p1496
I1
sS'flub'
p1497
I1
sS'ignore'
p1498
I2
sS"complicated'"
p1499
I1
sS'Little'
p1500
I1
sS"Lockheed's"
p1501
I1
sS'parade'
p1502
I2
sS'some'
p1503
I2
sS'back'
p1504
I2
sS'MWC'
p1505
I2
sS'streaming'
p1506
I1
sS'Mourinho'
p1507
I1
sS'Andy'
p1508
I2
sS'30m'
p1509
I1
sS'Academical'
p1510
I1
sS'Bannon'
p1511
I1
sS'Dame'
p1512
I1
sS'Seoul'
p1513
I1
sS'Haass'
p1514
I1
sS'decision'
p1515
I1
sS'Hindenburg'
p1516
I1
sS'epic'
p1517
I1
sS"Here's"
p1518
I1
sS'Something'
p1519
I2
sS'be'
p1520
I7
sS'jumps'
p1521
I1
sS'Economics'
p1522
I1
sS'David'
p1523
I3
sS'Stopping'
p1524
I1
sS'Russia'
p1525
I11
sS'Sanchez'
p1526
I1
sS'Taylor'
p1527
I1
sS'anything'
p1528
I1
sS'Roe'
p1529
I2
sS'range'
p1530
I1
sS'slams'
p1531
I1
sS"Won't"
p1532
I1
sS'Pong'
p1533
I1
sS'shiny'
p1534
I1
sS'Common'
p1535
I1
sS'Simon'
p1536
I1
sS'caretaker'
p1537
I1
sS'into'
p1538
I1
sS'Young'
p1539
I1
sS'Their'
p1540
I4
sS'Flights'
p1541
I1
sS'Speech'
p1542
I2
sS'spending'
p1543
I1
sS'Anthony'
p1544
I1
sS'Coverage'
p1545
I1
sS'Gerald'
p1546
I1
sS'forward'
p1547
I1
sS'Bond'
p1548
I1
sS'Fly'
p1549
I1
sS'Sutton'
p1550
I1
sS'0-0'
p1551
I1
sS'0-1'
p1552
I1
sS'immigration'
p1553
I1
sS'Raikkonen'
p1554
I1
sS'glamour'
p1555
I1
sS'\xe2'
I15
sS"miracle'"
p1556
I1
sS'ceremonies'
p1557
I1
sS'Office'
p1558
I1
sS'Jeff'
p1559
I2
sS'Twitter'
p1560
I1
sS'Indoor'
p1561
I1
sS'up'
p1562
I8
sS'Murray'
p1563
I2
sS'Offers'
p1564
I1
sS'prosecutor'
p1565
I2
sS'called'
p1566
I1
sS'36-15'
p1567
I1
sS'constant'
p1568
I1
sS'Ambitions'
p1569
I1
sS'Needed'
p1570
I1
sS'Attack'
p1571
I2
sS'warning'
p1572
I1
sS'Snap'
p1573
I1
sS'presides'
p1574
I1
sS"changes'"
p1575
I1
sS'rainbow'
p1576
I1
sS'Murder'
p1577
I1
sS'May'
p1578
I3
sS'peace'
p1579
I1
sS'fears'
p1580
I1
sS'backs'
p1581
I1
sS'club'
p1582
I1
sS'Wasted'
p1583
I1
sS'Dynamics\xe2'
p1584
I1
sS'Man'
p1585
I5
sS'Red'
p1586
I3
sS'mastermind'
p1587
I1
sS'Cash'
p1588
I1
sS'resign'
p1589
I1
sS'Moonlight'
p1590
I4
sS"soar'"
p1591
I1
sS'Derby'
p1592
I1
sS"Salvador's"
p1593
I1
sS'urged'
p1594
I1
sS'Confirms'
p1595
I1
sS'Uzi'
p1596
I1
sS'Tunisia'
p1597
I1
sS'As'
p1598
I1
sS'Scott'
p1599
I1
sS'2005'
p1600
I1
sS'far'
p1601
I1
sS"back'"
p1602
I1
sS'mix-up'
p1603
I3
sS'Sell'
p1604
I1
sS'Musk\xe2'
p1605
I1
sS'Ibrahimovic'
p1606
I2
sS'softer'
p1607
I1
sS'Department'
p1608
I2
sS'Bulls'
p1609
I1
sS'issues'
p1610
I2
sS'breached'
p1611
I1
sS'Netanyahu'
p1612
I3
sS'Not'
p1613
I3
sS'3\xe2'
p1614
I1
sS"'Go"
p1615
I1
sS'include'
p1616
I1
sS'meetings'
p1617
I2
sS'breathing'
p1618
I1
sS'Albion'
p1619
I1
sS'P'
I1
sS'Risks'
p1620
I1
sS'Staking'
p1621
I1
sS'touchline'
p1622
I1
sS"help'"
p1623
I1
sS'Investors'
p1624
I1
sS'Brisbane'
p1625
I2
sS"Leicester'"
p1626
I1
sS'populist'
p1627
I1
sS'Defense'
p1628
I1
sS'Stings'
p1629
I1
sS'car'
p1630
I2
sS"Uber's"
p1631
I2
sS'ceasefire'
p1632
I1
sS'Theranos'
p1633
I1
sS'Spending'
p1634
I1
sS'flu'
p1635
I1
sS'Vehicle'
p1636
I1
sS'Tax-Reporting'
p1637
I1
sS'State'
p1638
I4
sS'video'
p1639
I2
sS'Organization'
p1640
I1
sS'concludes'
p1641
I1
sS'Brace'
p1642
I1
sS'honors'
p1643
I1
sS'Governors'
p1644
I2
sS'Hammond'
p1645
I1
sS'cell'
p1646
I1
sS'waiting'
p1647
I1
sS'Gestede'
p1648
I1
sS'Video'
p1649
I27
sS'Former'
p1650
I2
sS'Might'
p1651
I1
sS'Thrives'
p1652
I1
sS'led'
p1653
I1
sS'stance'
p1654
I1
sS'Startup'
p1655
I2
sS'Wrap'
p1656
I1
sS'poverty'
p1657
I1
sS'Commonwealth'
p1658
I1
sS'Chinese'
p1659
I2
sS'Energy'
p1660
I1
sS'30'
p1661
I1
sS'Back'
p1662
I1
sS'Fortunes'
p1663
I1
sS'Vietnam'
p1664
I1
sS'addresses'
p1665
I1
sS'Doctor'
p1666
I1
sS"'get"
p1667
I1
sS'app'
p1668
I2
sS'Farah'
p1669
I1
sS'private'
p1670
I1
sS'FA'
p1671
I7
sS'Hove'
p1672
I1
sS'from'
p1673
I5
sS'Ernie'
p1674
I1
sS'Attend'
p1675
I1
sS'Driver'
p1676
I1
sS'next'
p1677
I1
sS'NATO'
p1678
I1
sS'cheeky'
p1679
I1
sS'Land'
p1680
I3
sS'on'
p1681
I37
sS'started'
p1682
I1
sS'baby'
p1683
I1
sS'Guy'
p1684
I2
sS'women'
p1685
I1
sS'customer'
p1686
I1
sS'F1'
p1687
I2
sS'account'
p1688
I1
sS'this'
p1689
I2
sS'challenge'
p1690
I1
sS"unfairly'"
p1691
I1
sS'meet'
p1692
I1
sS'process'
p1693
I2
sS'high'
p1694
I1
sS"'set"
p1695
I1
sS'Policy'
p1696
I1
sS'Party'
p1697
I1
sS"'ready"
p1698
I1
sS'democracy'
p1699
I1
sS"'Beauty"
p1700
I1
sS'Warrington'
p1701
I2
sS'winners'
p1702
I2
sS'unites'
p1703
I1
sS'Trump\xe2'
p1704
I1
sS'UK'
p1705
I2
sS'attend'
p1706
I1
sS'British'
p1707
I2
sS'abuse'
p1708
I4
sS'ethnic'
p1709
I1
sS'Donnell'
p1710
I2
sS'Uber'
p1711
I3
sS'Politico'
p1712
I1
sS"'determined"
p1713
I1
sS'didn\xe2'
p1714
I1
sS'robot'
p1715
I1
sS'One'
p1716
I1
sS'Blackpool'
p1717
I1
sS'Reputation'
p1718
I1
sS'Tablets'
p1719
I1
sS'six-year'
p1720
I1
sS'Ginsburg'
p1721
I1
sS'move'
p1722
I1
sS"king's"
p1723
I1
sS'looks'
p1724
I1
sS'Hearts'
p1725
I1
sS'Orbiting'
p1726
I1
sS'Match'
p1727
I2
sS'Ayr'
p1728
I1
sS"'strongly"
p1729
I1
sS"'cash"
p1730
I1
sS'Paperwork'
p1731
I1
sS'exclusion'
p1732
I1
sS'll'
p1733
I1
sS'nostalgia'
p1734
I1
sS'labor'
p1735
I1
sS'Director'
p1736
I1
sS'Championships'
p1737
I3
sS'2018'
p1738
I4
sS'2017'
p1739
I19
sS'2016'
p1740
I4
sS'dad'
p1741
I1
sS'Dubai'
p1742
I5
sS'crash'
p1743
I2
sS'Car'
p1744
I1
sS'Hungry'
p1745
I1
sS'Preside'
p1746
I1
sS'Can'
p1747
I2
sS'day'
p1748
I4
sS'presidential'
p1749
I1
sS'Summer'
p1750
I1
sS'bills'
p1751
I1
sS'Weekly'
p1752
I3
sS'From'
p1753
I2
sS'doing'
p1754
I2
sS'Next'
p1755
I3
sS'80'
p1756
I2
sS'sexual'
p1757
I2
sS'special'
p1758
I2
sS'out'
p1759
I2
sS"Ferrari's"
p1760
I1
sS'Vert'
p1761
I1
sS"'"
I4
sS'CEO'
p1762
I3
sS'Heir'
p1763
I1
sS"nationalism'"
p1764
I1
sS'China'
p1765
I4
sS'Nearly'
p1766
I1
sS'Trying'
p1767
I1
sS'supports'
p1768
I1
sS'red'
p1769
I2
sS'Vern'
p1770
I1
sS'disclose'
p1771
I2
sS'cricketer'
p1772
I1
sS'This'
p1773
I4
sS'transfer'
p1774
I1
sS'Surge'
p1775
I1
sS'Perks'
p1776
I1
sS'Ryan'
p1777
I3
sS'A4109'
p1778
I1
sS'Senator'
p1779
I1
sS'Spend'
p1780
I2
sS'allies'
p1781
I1
sS'Durban'
p1782
I1
sS'Point'
p1783
I1
sS'Madrid'
p1784
I1
sS'could'
p1785
I2
sS'times'
p1786
I1
sS'Drone'
p1787
I1
sS'Aides'
p1788
I1
sS'Superbugs'
p1789
I1
sS"'soft"
p1790
I1
sS'there'
p1791
I1
sS'apps'
p1792
I1
sS'Review'
p1793
I1
sS"Paxton's"
p1794
I1
sS'reaches'
p1795
I1
sS"Italy's"
p1796
I1
sS'prank'
p1797
I2
sS'Boris'
p1798
I1
sS'has'
p1799
I1
sS'North'
p1800
I2
sS'Eastern'
p1801
I1
sS'Shane'
p1802
I1
sS'Funds'
p1803
I2
sS'Chokes'
p1804
I1
sS'their'
p1805
I2
sS'attack'
p1806
I2
sS'Last-Minute'
p1807
I1
sS'declines'
p1808
I1
sS"Scotland's"
p1809
I1
sS'Stocks'
p1810
I2
sS'Vargas'
p1811
I1
sS'final'
p1812
I3
sS'2-2'
p1813
I1
sS'Lincoln'
p1814
I3
sS'Fox'
p1815
I1
sS'nobody'
p1816
I1
sS'Democratic'
p1817
I2
sS'Bolton'
p1818
I1
sS'Pound'
p1819
I1
sS'Siri'
p1820
I1
sS'compensation'
p1821
I1
sS'Diverse'
p1822
I1
sS'loves'
p1823
I1
sS'Psaki'
p1824
I1
sS"Facebook's"
p1825
I1
sS'Inquest'
p1826
I1
sS'recuse'
p1827
I1
sS'Richard'
p1828
I1
sS'have'
p1829
I3
sS'need'
p1830
I1
sS'border'
p1831
I1
sS'preps'
p1832
I1
sS'Spat'
p1833
I1
sS'Independent'
p1834
I1
sS"'Moonlight'"
p1835
I2
sS'Goldman'
p1836
I3
sS'After'
p1837
I5
sS'battles'
p1838
I1
sS'mix'
p1839
I1
sS'demolished'
p1840
I1
sS'so'
p1841
I1
sS'medals'
p1842
I1
sS'savages'
p1843
I1
sS'agenda'
p1844
I1
sS'who'
p1845
I1
sS'Titanic'
p1846
I1
sS'Without'
p1847
I2
sS'Games'
p1848
I1
sS'Mercedes'
p1849
I1
sS"'radical"
p1850
I1
sS'Lock'
p1851
I1
sS'Some'
p1852
I1
sS'face'
p1853
I2
sS'Donald'
p1854
I3
sS'Growth'
p1855
I1
sS'USC'
p1856
I1
sS'Dem'
p1857
I1
sS'text'
p1858
I1
sS'bring'
p1859
I1
sS'Under'
p1860
I1
sS'rough'
p1861
I1
sS'feat'
p1862
I1
sS'debate'
p1863
I1
sS'decade'
p1864
I1
sS'staff'
p1865
I1
sS'Thrones'
p1866
I1
sS'sparks'
p1867
I1
sS'Khan'
p1868
I1
sS'winner'
p1869
I2
sS'should'
p1870
I3
sS'terminal'
p1871
I1
sS'Sons'
p1872
I1
sS'York'
p1873
I2
sS'thousands'
p1874
I2
sS'day-old'
p1875
I1
sS'Ngo'
p1876
I1
sS'19-9'
p1877
I1
sS"'giving"
p1878
I1
sS'joint'
p1879
I1
sS'burglary'
p1880
I1
sS'second-half'
p1881
I1
sS'Dial'
p1882
I1
sS'Because'
p1883
I1
sS"'don't"
p1884
I1
sS'calling'
p1885
I2
sS'Wall'
p1886
I1
sS"manager's"
p1887
I1
sS'she'
p1888
I1
sS'allegation'
p1889
I1
sS'Ps'
p1890
I1
sS'temporarily'
p1891
I1
sS"Oxford's"
p1892
I1
sS'frame'
p1893
I1
sS"'carjacking'"
p1894
I2
sS'officials'
p1895
I2
sS'signed'
p1896
I2
sS'closes'
p1897
I1
sS'Arrives'
p1898
I1
sS'Sinks'
p1899
I1
sS'Seconds'
p1900
I1
sS'nuclear'
p1901
I1
sS'Hike'
p1902
I3
sS'Lynch-Clinton'
p1903
I1
sS'PI'
p1904
I1
sS'email'
p1905
I3
sS'PM'
p1906
I1
sS"'soldiers"
p1907
I1
sS'job'
p1908
I2
sS'Himself'
p1909
I2
sS'EFL'
p1910
I2
sS'key'
p1911
I2
sS'hits'
p1912
I3
sS'admin'
p1913
I1
sS'Dreamed'
p1914
I1
sS'drug'
p1915
I1
sS'rams'
p1916
I1
sS'Indies'
p1917
I2
sS'volley'
p1918
I1
sS'heart'
p1919
I1
sS'withdraws'
p1920
I3
sS'Her'
p1921
I1
sS'Haye'
p1922
I1
sS'Garry'
p1923
I1
sS'respect'
p1924
I1
sS"Women's"
p1925
I1
sS'Rewards'
p1926
I1
sS'trademark'
p1927
I1
sS'Immigration'
p1928
I1
sS'responds'
p1929
I1
sS'permanent'
p1930
I1
sS'Speak'
p1931
I1
sS'reshape'
p1932
I1
sS'Center'
p1933
I1
sS'Puzder'
p1934
I1
sS'overwhelmingly'
p1935
I1
sS'kickers'
p1936
I1
sS'Nations'
p1937
I7
sS"doesn't"
p1938
I1
sS'Credit'
p1939
I1
sS'kicks'
p1940
I1
sS'Jason'
p1941
I1
sS'an'
p1942
I2
sS'And'
p1943
I1
sS'smartphones'
p1944
I1
sS'Force'
p1945
I1
sS'Warns'
p1946
I3
sS'Hot'
p1947
I1
sS'General'
p1948
I2
sS'will'
p1949
I4
sS"America's"
p1950
I2
sS'Troops'
p1951
I1
sS'bicker'
p1952
I1
sS'almost'
p1953
I1
sS'Celtic'
p1954
I1
sS'rips'
p1955
I1
sS'Shackled'
p1956
I1
sS"Russia's"
p1957
I2
sS'You'
p1958
I4
sS'Singhal'
p1959
I1
sS'Briton'
p1960
I1
sS'Beat'
p1961
I1
sS'administration'
p1962
I2
sS'Insults'
p1963
I1
sS'free-kick'
p1964
I1
sS'Golf'
p1965
I1
sS'gets'
p1966
I1
sS'injured'
p1967
I2
sS'Entire'
p1968
I1
sS'1-0'
p1969
I4
sS'Coral'
p1970
I1
sS'1-2'
p1971
I2
sS'off'
p1972
I5
sS'Senate'
p1973
I1
sS'Aberdeen'
p1974
I1
sS'Muir'
p1975
I2
sS'thought'
p1976
I2
sS'patterns'
p1977
I1
sS'Have'
p1978
I2
sS'Need'
p1979
I1
sS'realised'
p1980
I1
sS'taller'
p1981
I1
sS'Entitlement'
p1982
I1
sS'less'
p1983
I1
sS'Liftoff'
p1984
I1
sS'Access'
p1985
I1
sS'Care'
p1986
I1
sS'Shale'
p1987
I1
sS'Flynn'
p1988
I1
sS'Gill'
p1989
I1
sS'Be'
p1990
I3
sS'field'
p1991
I1
sS'Kraft'
p1992
I1
sS'By'
p1993
I1
sS'Special\xe2'
p1994
I2
sS'tests'
p1995
I1
sS'Launch'
p1996
I1
sS'checking'
p1997
I1
sS'Dinner'
p1998
I1
sS'historic'
p1999
I1
sS'five'
p2000
I2
sS'know'
p2001
I2
sS'Salazar'
p2002
I1
sS'Release'
p2003
I1
sS'Fallen'
p2004
I1
sS'England'
p2005
I9
sS'helpful'
p2006
I1
sS'lost'
p2007
I1
sS'loses'
p2008
I1
sS'lose'
p2009
I1
sS'become'
p2010
I1
sS'Dustin'
p2011
I1
sS'refugees'
p2012
I1
sS'because'
p2013
I1
sS'footage'
p2014
I1
sS'Climate'
p2015
I1
sS"There's"
p2016
I1
sS'home'
p2017
I2
sS'Jonathan'
p2018
I1
sS'Claims'
p2019
I2
sS'Singapore'
p2020
I1
sS'Was'
p2021
I1
sS'does'
p2022
I1
sS'Bull'
p2023
I1
sS'Inside'
p2024
I1
sS'Official'
p2025
I1
sS'Up'
p2026
I2
sS'Us'
p2027
I3
sS'Pence'
p2028
I3
sS'Un'
p2029
I1
sS'Planned'
p2030
I1
sS'baffling'
p2031
I1
sS'stage'
p2032
I3
sS'about'
p2033
I5
sS'getting'
p2034
I1
sS'US'
p2035
I11
sS"Statham's"
p2036
I1
sS'UN'
p2037
I2
sS'on-stage'
p2038
I1
sS'urges'
p2039
I1
sS'fatally'
p2040
I1
sS'Really'
p2041
I1
sS'Passes'
p2042
I1
sS'Two'
p2043
I2
sS'included'
p2044
I1
sS'Labour'
p2045
I2
sS'female'
p2046
I1
sS'Insurers'
p2047
I1
sS'Awareness'
p2048
I1
sS'Bingham'
p2049
I1
sS"Foxes'"
p2050
I2
sS'Abdel-Rahman'
p2051
I1
sS'Assistant'
p2052
I1
sS'Spell'
p2053
I1
sS'Upon'
p2054
I1
sS'Child'
p2055
I1
sS'Rejection'
p2056
I1
sS'chatting'
p2057
I1
sS'Losses'
p2058
I1
sS'agrees'
p2059
I1
sS'but'
p2060
I1
sS'goals'
p2061
I2
sS"Flynn's"
p2062
I1
sS'highest'
p2063
I1
sS'Chelsea'
p2064
I1
sS'he'
p2065
I6
sS'made'
p2066
I1
sS'tactics'
p2067
I1
sS'calls'
p2068
I4
sS'Proposed'
p2069
I1
sS'whether'
p2070
I1
sS'Zlatan'
p2071
I1
sS'record'
p2072
I3
sS'Britain'
p2073
I1
sS'chairmanship'
p2074
I1
sS'limit'
p2075
I1
sS'Tes'
p2076
I1
sS'Insurance'
p2077
I1
sS'CIA'
p2078
I1
sS'Garth'
p2079
I1
sS'twist'
p2080
I1
sS'beats'
p2081
I3
sS'websites'
p2082
I1
sS'flight'
p2083
I1
sS'champion'
p2084
I1
sS'Sessions'
p2085
I7
sS'86'
p2086
I1
sS'Million'
p2087
I3
sS'Dictators'
p2088
I1
sS'Delivery'
p2089
I1
sS'Islamic'
p2090
I1
sS'other'
p2091
I1
sS'Five'
p2092
I1
sS"'Terrorism"
p2093
I1
sS'Pietersen'
p2094
I1
sS'conclusion'
p2095
I1
sS'convicts'
p2096
I1
sS'Like'
p2097
I1
sS'stay'
p2098
I1
sS'April'
p2099
I1
sS'Future'
p2100
I1
sS'U'
I10
sS'Morgan'
p2101
I1
sS'Lose'
p2102
I1
sS'repeal'
p2103
I1
sS'friends'
p2104
I1
sS'South'
p2105
I1
sS'Private'
p2106
I1
sS'Ruck-gate'
p2107
I1
ssS'_mapping'
p2108
(dp2109
g18
I1608
sg19
I471
sg20
I1814
sg21
I115
sg22
I1180
sg23
I73
sg24
I44
sg25
I789
sg26
I319
sg27
I1017
sg28
I1358
sg29
I1406
sg30
I1238
sg31
I149
sg32
I715
sg33
I1331
sg34
I2077
sg35
I1206
sg36
I1923
sg37
I946
sg38
I1854
sg39
I760
sg40
I1599
sg41
I1879
sg42
I1788
sg43
I354
sg44
I362
sg45
I1925
sg46
I396
sg47
I1776
sg48
I1080
sg49
I1483
sg50
I1678
sg51
I198
sg52
I1075
sg53
I2104
sS'A'
I1514
sg54
I423
sg55
I1210
sg56
I1166
sg57
I1522
sg58
I1428
sg59
I1343
sg60
I1369
sg61
I344
sg62
I1214
sg63
I1446
sg64
I1094
sg65
I1535
sg66
I140
sg67
I1026
sg68
I2040
sg69
I326
sg70
I2006
sg71
I803
sg72
I518
sg73
I1957
sg74
I63
sg75
I892
sg76
I1820
sg77
I2075
sg78
I2042
sg79
I1335
sg80
I1328
sg81
I1088
sg82
I731
sg83
I953
sg84
I54
sg85
I143
sg86
I462
sg87
I180
sg88
I1734
sg89
I1190
sg90
I1420
sg91
I1895
sg92
I778
sg93
I851
sg94
I431
sg95
I1584
sg96
I700
sg97
I1771
sg98
I407
sg99
I1965
sg100
I134
sg101
I869
sg102
I170
sg103
I482
sg104
I1793
sg105
I280
sg106
I675
sg107
I952
sg108
I568
sg109
I251
sg110
I33
sg111
I627
sg112
I329
sg113
I834
sg114
I129
sg115
I1122
sg116
I1513
sg117
I1024
sg118
I2050
sg119
I587
sg120
I926
sg121
I2079
sg122
I2027
sg123
I1092
sg124
I1400
sg125
I466
sg126
I1308
sg127
I4
sg128
I1946
sg129
I1770
sg130
I1747
sg131
I804
sg132
I92
sg133
I1952
sg134
I717
sg135
I55
sg136
I1090
sg137
I1366
sg138
I93
sg139
I1054
sg140
I1962
sg141
I446
sg142
I1831
sg143
I1014
sg144
I203
sg145
I1201
sg146
I1015
sg147
I333
sg148
I2007
sg149
I990
sg150
I1494
sg151
I2016
sg152
I1212
sg153
I1580
sg154
I1243
sg155
I1615
sg156
I1994
sg157
I751
sg158
I641
sg159
I327
sg160
I1139
sg161
I1857
sg162
I192
sg163
I894
sg164
I1832
sg165
I1930
sg166
I121
sg167
I978
sg168
I1268
sg169
I809
sg170
I716
sg171
I1958
sg172
I69
sg173
I1044
sg174
I1354
sg175
I902
sg176
I132
sg177
I1260
sg178
I2093
sg179
I1614
sg180
I1922
sg181
I1281
sg182
I1816
sg183
I1533
sg184
I323
sg185
I315
sg186
I1805
sg187
I574
sg188
I1808
sS'W'
I1510
sg189
I1431
sg190
I783
sg191
I1530
sg192
I1130
sg193
I137
sg194
I608
sg195
I1221
sg196
I1266
sg197
I838
sg198
I708
sg199
I846
sg200
I1555
sg201
I542
sg202
I353
sg203
I2108
sg12
I0
sg204
I1487
sg205
I872
sg206
I1235
sg207
I2086
sg208
I533
sg209
I1784
sg210
I645
sg211
I89
sg212
I210
sg213
I1067
sg214
I1334
sg215
I1588
sg216
I844
sg217
I1273
sg218
I1914
sg219
I480
sg220
I1032
sg221
I416
sg222
I209
sg223
I155
sS'-'
I14
sg224
I1935
sg225
I984
sg226
I23
sg227
I790
sS'\xc2'
I1355
sg228
I1052
sg229
I290
sg230
I1755
sg231
I1426
sg232
I657
sg233
I9
sg234
I1368
sg235
I389
sg236
I1892
sg237
I785
sg238
I918
sg239
I567
sg240
I1120
sg241
I1337
sg242
I529
sg243
I1765
sg244
I346
sg245
I430
sg246
I1388
sg247
I125
sg248
I1621
sg249
I1294
sg250
I1109
sg251
I465
sg252
I1247
sg253
I2002
sg254
I583
sg255
I1038
sg256
I527
sg257
I524
sg258
I112
sg259
I1903
sg260
I1902
sg261
I532
sg262
I1500
sg263
I1143
sg264
I1081
sg265
I1231
sg266
I29
sg267
I1022
sg268
I1172
sg269
I1161
sg270
I701
sS'X'
I505
sg271
I1346
sg272
I1540
sg273
I2100
sg274
I1867
sg275
I1259
sg276
I1309
sg277
I843
sg278
I2067
sg279
I85
sg280
I1664
sg281
I1193
sg282
I588
sg283
I1921
sg284
I420
sg285
I991
sg286
I195
sg287
I1985
sg288
I1132
sg289
I787
sg290
I398
sg291
I2061
sg292
I948
sg293
I1571
sg294
I914
sg295
I393
sg296
I278
sg297
I648
sg298
I1775
sg299
I1264
sg300
I740
sg301
I1285
sg302
I594
sg303
I394
sg304
I1262
sg305
I1654
sg306
I1565
sg307
I1806
sg308
I96
sg309
I448
sg310
I415
sg311
I1502
sg312
I1310
sg313
I1482
sg314
I1722
sg315
I1978
sg316
I692
sg317
I799
sg318
I141
sg319
I1827
sg320
I1665
sg321
I1101
sg322
I1378
sg323
I177
sg324
I216
sg325
I784
sg326
I222
sg327
I2106
sg328
I1007
sg329
I1767
sg330
I1102
sg331
I294
sg332
I1480
sg333
I975
sg334
I1595
sg335
I580
sg336
I345
sg337
I1596
sg338
I1330
sg339
I254
sg340
I1741
sg341
I522
sg342
I507
sg343
I994
sg344
I1933
sg345
I1973
sg346
I297
sg347
I366
sg348
I1631
sg349
I1492
sg350
I1349
sg351
I1131
sg352
I91
sg353
I387
sg354
I231
sg355
I1511
sg356
I1547
sg357
I46
sg358
I1859
sg359
I2094
sg360
I1008
sg361
I1955
sg362
I281
sg363
I1907
sg364
I1183
sg365
I1468
sg366
I686
sg367
I151
sg368
I2045
sg369
I1924
sg370
I1812
sg371
I877
sg372
I1723
sg373
I1988
sg374
I422
sg375
I1563
sg376
I460
sg377
I1756
sg378
I791
sg379
I1913
sg380
I906
sg381
I26
sg382
I383
sg383
I987
sg384
I200
sg385
I40
sg386
I2044
sg387
I1150
sg388
I43
sg389
I2087
sg390
I435
sg391
I646
sg392
I1311
sg393
I819
sg394
I1738
sg395
I1823
sg396
I450
sg397
I1976
sg398
I1564
sg399
I742
sg400
I1
sg401
I1474
sg402
I1980
sg403
I647
sg404
I830
sg405
I100
sg406
I105
sg407
I1020
sg408
I1315
sg409
I37
sg410
I730
sg411
I972
sg412
I1506
sg413
I1898
sg414
I1986
sg415
I212
sg416
I225
sg417
I1073
sg418
I1427
sg419
I911
sg420
I1158
sg421
I481
sg422
I560
sg423
I110
sg424
I1189
sg425
I299
sg426
I825
sg427
I2089
sg428
I880
sg429
I1651
sg430
I1066
sg431
I550
sg432
I940
sg433
I236
sg434
I57
sg435
I691
sg436
I1263
sg437
I578
sg438
I610
sg439
I1230
sg440
I1228
sg441
I437
sg442
I1416
sg443
I1916
sg444
I347
sg445
I1999
sg446
I1617
sg447
I1507
sg448
I390
sg449
I1253
sg450
I295
sg451
I2062
sg452
I758
sg453
I1332
sg454
I232
sg455
I1079
sg456
I273
sg457
I881
sg458
I1803
sg459
I958
sg460
I622
sg461
I628
sg462
I1057
sg463
I1291
sg464
I2111
sg465
I1195
sg466
I1846
sg467
I773
sg468
I1574
sg469
I1333
sg470
I322
sg471
I417
sg472
I1893
sg473
I1339
sg474
I1304
sg475
I682
sg476
I1207
sg477
I1979
sg478
I1111
sg479
I1992
sg480
I1638
sg481
I1464
sg482
I1642
sg483
I61
sg484
I79
sg485
I932
sg486
I735
sg487
I1542
sg488
I373
sg489
I1455
sg490
I1133
sg491
I1300
sg492
I335
sg493
I1905
sg494
I274
sg495
I456
sg496
I943
sg497
I1475
sg498
I1748
sg499
I755
sg500
I1246
sg501
I337
sg502
I1719
sg503
I1813
sg504
I1324
sg505
I117
sg506
I2021
sg507
I841
sg508
I693
sg509
I687
sg510
I291
sg511
I979
sg512
I649
sg513
I240
sg514
I1668
sg515
I1557
sg516
I1351
sg517
I234
sg518
I1945
sg519
I1835
sg520
I1250
sg521
I703
sg522
I1460
sg523
I666
sg524
I753
sg525
I138
sg526
I1677
sg527
I1729
sg528
I898
sg529
I289
sg530
I17
sg531
I1095
sg532
I1853
sg533
I1129
sg534
I193
sg535
I235
sg536
I1196
sg537
I766
sg538
I986
sg539
I1410
sg540
I794
sg541
I765
sg542
I300
sg543
I962
sg544
I674
sg545
I1374
sg546
I665
sg547
I1789
sg548
I584
sg549
I118
sg550
I1575
sg551
I676
sg552
I1104
sg553
I194
sg554
I260
sg555
I1265
sg556
I358
sg557
I998
sg558
I357
sg559
I421
sg560
I258
sg561
I253
sg562
I444
sg563
I1456
sg564
I1562
sg565
I122
sg566
I1493
sg567
I1140
sg568
I718
sg569
I1993
sg570
I1445
sg571
I1459
sg572
I1353
sg573
I2083
sg574
I1164
sg575
I713
sg576
I433
sg577
I1877
sg578
I1847
sg579
I495
sg580
I1396
sg581
I227
sg582
I694
sg583
I1650
sg584
I188
sg585
I1087
sg586
I104
sg587
I109
sg588
I904
sg589
I626
sg590
I313
sg591
I1390
sg592
I738
sg593
I1312
sg594
I1763
sg595
I66
sg596
I228
sg597
I514
sg598
I1125
sg599
I1707
sg600
I1053
sg601
I1866
sg602
I2097
sg603
I1876
sg604
I1586
sg605
I397
sg606
I2012
sg607
I519
sg608
I1077
sg609
I371
sg610
I1319
sg611
I453
sg612
I2051
sg613
I1918
sg614
I604
sg615
I1418
sg616
I601
sg617
I912
sg618
I341
sg619
I1127
sg620
I871
sg621
I374
sg622
I1683
sg623
I1521
sg624
I1237
sg625
I1764
sg626
I1926
sg627
I725
sS'1'
I382
sg628
I363
sg629
I1889
sg630
I32
sg631
I267
sg632
I113
sg633
I1023
sg634
I1686
sg635
I168
sg636
I90
sg637
I401
sg638
I642
sg639
I1280
sg640
I1674
sg641
I1389
sg642
I788
sg643
I413
sg644
I1519
sg645
I1451
sg646
I1105
sg647
I1476
sg648
I688
sg649
I1825
sg650
I848
sg651
I884
sg652
I221
sg653
I1928
sg654
I995
sg655
I330
sg656
I1917
sg657
I1407
sg658
I1046
sg659
I1773
sg660
I1871
sg661
I2009
sg662
I1602
sg663
I1471
sg664
I963
sg665
I1744
sg666
I1850
sg667
I1379
sg668
I492
sg669
I1656
sg670
I1267
sg671
I30
sg672
I427
sg673
I1998
sg674
I711
sg675
I1523
sg676
I174
sg677
I1984
sg678
I1432
sg679
I1074
sg680
I1626
sg681
I131
sg682
I343
sg683
I1232
sg684
I858
sg685
I2107
sg686
I535
sg687
I1769
sg688
I1740
sg689
I558
sg690
I857
sg691
I349
sg692
I469
sg693
I1725
sg694
I146
sg695
I741
sg696
I442
sg697
I1003
sg698
I184
sg699
I1497
sg700
I900
sg701
I2005
sg702
I1118
sg703
I1518
sg704
I265
sg705
I1915
sg706
I1392
sg707
I1029
sg708
I554
sg709
I1360
sg710
I1117
sg711
I264
sg712
I1248
sg713
I102
sg714
I722
sg715
I907
sg716
I2068
sg717
I191
sg718
I489
sg719
I162
sg720
I609
sg721
I1967
sg722
I1884
sg723
I1554
sS'2'
I211
sg724
I119
sg725
I814
sg726
I1356
sg727
I537
sg728
I633
sg729
I1462
sg730
I1982
sg731
I351
sg732
I1184
sg733
I761
sg734
I655
sg735
I1027
sg736
I1213
sg737
I1849
sg738
I509
sg739
I996
sg740
I1961
sg741
I1162
sg742
I2078
sg743
I1114
sg744
I45
sg745
I367
sg746
I18
sg747
I947
sg748
I153
sg749
I1880
sg750
I2010
sg751
I128
sg752
I2000
sg753
I1544
sg754
I1517
sg755
I454
sg756
I1593
sg757
I321
sg758
I1856
sg759
I1603
sg760
I1842
sg761
I1177
sg762
I1490
sg763
I1362
sg764
I1495
sg765
I652
sg766
I1303
sg767
I1489
sg768
I1549
sg769
I590
sg770
I865
sg771
I50
sg772
I644
sg773
I1086
sg774
I777
sg775
I98
sg776
I888
sg777
I70
sg778
I1204
sg779
I108
sg780
I1010
sg781
I1525
sg782
I370
sg783
I798
sg784
I1759
sg785
I938
sg786
I623
sg787
I266
sg788
I726
sg789
I1710
sg790
I1600
sg791
I64
sg792
I2060
sg793
I1419
sg794
I1951
sg795
I1585
sg796
I1341
sg797
I1629
sg798
I756
sg799
I856
sg800
I989
sg801
I624
sg802
I1181
sg803
I316
sg804
I1342
sg805
I750
sg806
I586
sg807
I685
sg808
I68
sg809
I384
sg810
I452
sg811
I1860
sg812
I1155
sg813
I887
sg814
I1478
sS'3'
I348
sg815
I1582
sg816
I1384
sg817
I816
sg818
I1043
sg819
I163
sg820
I598
sg821
I1097
sg822
I746
sg823
I915
sg824
I1156
sg825
I1977
sg826
I950
sg827
I103
sg828
I1465
sg829
I2025
sg830
I1720
sg831
I997
sg832
I571
sg833
I1199
sS'S'
I249
sg834
I747
sS's'
I286
sg835
I899
sg836
I1063
sg837
I1646
sg838
I1826
sg839
I1159
sg840
I1296
sg841
I201
sg842
I414
sg843
I206
sg844
I1688
sg845
I1317
sg846
I1034
sg847
I937
sg848
I219
sg849
I980
sg850
I1458
sg851
I1799
sg852
I1106
sg853
I1443
sg854
I2101
sg855
I1981
sg856
I1441
sg857
I1862
sg858
I317
sg859
I770
sg860
I1972
sg861
I1620
sg862
I441
sg863
I506
sg864
I1821
sg865
I983
sg866
I306
sg867
I474
sg868
I1169
sg869
I1348
sg870
I1817
sg871
I2001
sg872
I324
sg873
I2057
sg874
I467
sg875
I1875
sg876
I530
sg877
I1953
sg878
I1222
sg879
I1256
sg880
I1295
sg881
I1042
sg882
I1660
sg883
I621
sg884
I10
sg885
I1269
sg886
I320
sg887
I1538
sg888
I1170
sg889
I1684
sg890
I496
sg891
I1197
sg892
I684
sg893
I285
sS'I'
I139
sg894
I1391
sg895
I395
sg896
I304
sg897
I1137
sg898
I709
sg899
I1964
sg900
I2039
sg901
I669
sg902
I520
sg903
I1785
sg904
I534
sg905
I262
sg906
I252
sg907
I67
sg908
I1430
sg909
I1708
sg910
I1182
sg911
I325
sg912
I1055
sg913
I1609
sg914
I342
sg915
I820
sg916
I425
sg917
I48
sg918
I1061
sg919
I1229
sg920
I1134
sg921
I229
sg922
I944
sg923
I1548
sg924
I1068
sg925
I1833
sg926
I720
sg927
I678
sg928
I745
sg929
I1834
sg930
I1589
sg931
I698
sg932
I896
sg933
I1381
sg934
I625
sg935
I1364
sg936
I58
sg937
I186
sg938
I797
sg939
I1628
sg940
I2072
sg941
I973
sg942
I1760
sg943
I1792
sg944
I774
sg945
I1919
sS't'
I1028
sg946
I511
sg947
I536
sg948
I22
sg949
I284
sg950
I428
sg951
I781
sg952
I1997
sg953
I1937
sg954
I1098
sg955
I1693
sg956
I372
sg957
I1627
sg958
I439
sg959
I970
sg960
I862
sg961
I1673
sg962
I897
sg963
I1401
sg964
I1963
sg965
I275
sg966
I1200
sg967
I41
sg968
I76
sg969
I331
sg970
I400
sg971
I19
sg972
I2098
sg973
I208
sg974
I166
sg975
I1894
sg976
I1618
sg977
I1752
sg978
I147
sg979
I1082
sg980
I1882
sg981
I62
sg982
I336
sg983
I763
sg984
I1173
sg985
I243
sg986
I1908
sg987
I1758
sS'J'
I1567
sg988
I651
sg989
I1662
sg990
I1529
sg991
I49
sg992
I1236
sg993
I1329
sg994
I920
sg995
I1534
sg996
I689
sg997
I739
sg998
I1570
sg999
I1093
sg1000
I1188
sg1001
I835
sg1002
I563
sg1003
I1717
sg1004
I699
sg1005
I1878
sg1006
I504
sg1007
I1601
sg1008
I2041
sg1009
I169
sg1010
I659
sg1011
I82
sg1012
I205
sg1013
I298
sg1014
I916
sg1015
I1896
sg1016
I1290
sg1017
I1372
sg1018
I2082
sg1019
I409
sg1020
I1968
sg1021
I303
sg1022
I1950
sg1023
I1084
sg1024
I630
sg1025
I1271
sS'5'
I287
sg1026
I318
sg1027
I1739
sg1028
I981
sg1029
I639
sg1030
I1006
sg1031
I1716
sg1032
I1412
sg1033
I1645
sg1034
I237
sg1035
I1233
sg1036
I671
sg1037
I2090
sg1038
I31
sg1039
I15
sg1040
I966
sg1041
I638
sg1042
I1340
sg1043
I764
sg1044
I1245
sg1045
I1531
sg1046
I780
sg1047
I1435
sg1048
I782
sg1049
I833
sg1050
I1577
sg1051
I1108
sg1052
I1885
sg1053
I762
sg1054
I1663
sg1055
I1899
sg1056
I813
sg1057
I1590
sg1058
I1016
sg1059
I272
sg1060
I1146
sg1061
I1838
sg1062
I999
sg1063
I2109
sg1064
I1541
sg1065
I2110
sg1066
I1690
sg1067
I35
sg1068
I1076
sg1069
I1652
sg1070
I282
sg1071
I802
sg1072
I12
sg1073
I1089
sg1074
I905
sg1075
I928
sg1076
I269
sg1077
I664
sg1078
I1149
sg1079
I2055
sg1080
I1461
sg1081
I1060
sg1082
I2112
sg1083
I499
sg1084
I2046
sg1085
I868
sg1086
I359
sg1087
I540
sg1088
I1313
sg1089
I1100
sg1090
I1687
sg1091
I1363
sg1092
I1897
sg1093
I1041
sg1094
I1171
sg1095
I1148
sg1096
I564
sg1097
I1025
sg1098
I839
sg1099
I406
sg1100
I207
sg1101
I1807
sg1102
I1477
sg1103
I1942
sg1104
I491
sg1105
I1754
sg1106
I748
sg1107
I1715
sg1108
I1403
sg1109
I1872
sg1110
I1508
sg1111
I1274
sg1112
I1904
sg1113
I1386
sg1114
I1539
sg1115
I2022
sg1116
I1113
sg1117
I145
sg1118
I1637
sg1119
I350
sg1120
I1457
sg1121
I2023
sg1122
I161
sg1123
I1503
sg1124
I1587
sg1125
I1039
sg1126
I376
sg1127
I1208
sg1128
I51
sg1129
I487
sg1130
I1152
sg1131
I171
sg1132
I581
sg1133
I1632
sg1134
I712
sg1135
I1780
sg1136
I1397
sg1137
I933
sg1138
I1078
sg1139
I356
sg1140
I1037
sg1141
I2095
sS'v'
I339
sg1142
I340
sg1143
I501
sg1144
I1091
sg1145
I1568
sg1146
I1649
sg1147
I769
sg1148
I1735
sg1149
I1479
sg1150
I859
sg1151
I557
sg1152
I502
sg1153
I1906
sg1154
I176
sg1155
I1956
sg1156
I334
sg1157
I1991
sg1158
I673
sg1159
I2038
sg1160
I279
sg1161
I477
sg1162
I111
sg1163
I238
sg1164
I1021
sS'a'
I83
sg1165
I1425
sg1166
I1279
sg1167
I488
sg1168
I1709
sg1169
I1123
sg1170
I1249
sg1171
I386
sg1172
I497
sg1173
I985
sg1174
I1216
sg1175
I886
sg1176
I215
sg1177
I1761
sg1178
I377
sg1179
I1559
sg1180
I1691
sg1181
I404
sg1182
I165
sg1183
I1932
sg1184
I1126
sg1185
I457
sg1186
I1810
sg1187
I1151
sg1188
I106
sg1189
I2103
sg1190
I1314
sg1191
I1402
sg1192
I223
sg1193
I107
sg1194
I629
sg1195
I549
sg1196
I182
sg1197
I486
sg1198
I1472
sg1199
I1365
sg1200
I1211
sg1201
I2054
sg1202
I78
sg1203
I1121
sg1204
I934
sg1205
I2092
sg1206
I1058
sg1207
I2026
sg1208
I185
sg1209
I1255
sg1210
I1779
sg1211
I1292
sg1212
I1405
sg1213
I866
sg1214
I1700
sg1215
I1975
sg1216
I1449
sg1217
I977
sg1218
I1840
sg1219
I1528
sg1220
I1398
sg1221
I1592
sg1222
I517
sg1223
I1732
sg1224
I1284
sg1225
I1644
sg1226
I707
sg1227
I1713
sg1228
I1496
sg1229
I181
sg1230
I2030
sg1231
I380
sg1232
I1689
sg1233
I355
sg1234
I606
sg1235
I1515
sg1236
I1153
sg1237
I2017
sg1238
I595
sg1239
I1667
sg1240
I352
sg1241
I576
sg1242
I566
sg1243
I1597
sg1244
I307
sg1245
I959
sg1246
I1901
sg1247
I1836
sg1248
I255
sg1249
I1640
sg1250
I1096
sg1251
I1185
sg1252
I1509
sg1253
I1276
sg1254
I913
sg1255
I1422
sg1256
I704
sg1257
I901
sg1258
I1888
sg1259
I1672
sg1260
I483
sg1261
I1013
sg1262
I1395
sg1263
I490
sg1264
I455
sg1265
I213
sg1266
I1415
sg1267
I1558
sg1268
I1000
sg1269
I1727
sg1270
I1099
sg1271
I94
sg1272
I1473
sg1273
I1163
sg1274
I1800
sg1275
I2105
sg1276
I86
sg1277
I2073
sg1278
I1299
sg1279
I1526
sg1280
I796
sg1281
I1869
sg1282
I936
sg1283
I653
sg1284
I1512
sg1285
I528
sg1286
I1705
sg1287
I1943
sg1288
I575
sg1289
I710
sg1290
I226
sg1291
I1453
sg1292
I603
sg1293
I737
sg1294
I1215
sg1295
I690
sg1296
I2052
sg1297
I1697
sg1298
I1703
sg1299
I2074
sg1300
I1040
sg1301
I1065
sg1302
I1970
sg1303
I1560
sg1304
I1658
sg1305
I1911
sg1306
I130
sg1307
I600
sg1308
I2003
sg1309
I1011
sg1310
I951
sg1311
I1959
sg1312
I855
sg1313
I1753
sg1314
I714
sg1315
I364
sg1316
I705
sg1317
I593
sg1318
I1505
sg1319
I160
sg1320
I1607
sg1321
I923
sg1322
I875
sg1323
I1891
sg1324
I681
sg1325
I2069
sg1326
I553
sg1327
I136
sS'8'
I87
sg1328
I1048
sg1329
I919
sg1330
I768
sg1331
I1828
sg1332
I1569
sg1333
I632
sg1334
I1382
sg1335
I917
sg1336
I1370
sg1337
I931
sg1338
I53
sg1339
I982
sg1340
I11
sg1341
I1393
sg1342
I663
sg1343
I582
sg1344
I2008
sg1345
I1701
sg1346
I148
sg1347
I123
sg1348
I1373
sg1349
I1404
sg1350
I602
sg1351
I167
sg1352
I1019
sg1353
I1409
sg1354
I183
sg1355
I276
sg1356
I547
sg1357
I801
sg1358
I2064
sg1359
I2035
sg1360
I256
sg1361
I239
sg1362
I828
sg1363
I1711
sg1364
I1142
sg1365
I418
sg1366
I1141
sg1367
I822
sg1368
I1524
sg1369
I199
sg1370
I1116
sg1371
I579
sg1372
I1844
sg1373
I379
sg1374
I1059
sg1375
I620
sg1376
I1576
sg1377
I1258
sg1378
I1949
sg1379
I596
sg1380
I879
sg1381
I1572
sg1382
I1870
sg1383
I1345
sg1384
I1270
sg1385
I1873
sg1386
I1781
sg1387
I1886
sg1388
I2063
sg1389
I2099
sg1390
I589
sg1391
I88
sg1392
I1062
sg1393
I292
sg1394
I1546
sg1395
I1543
sg1396
I1625
sg1397
I1666
sg1398
I447
sg1399
I314
sg1400
I1463
sg1401
I525
sg1402
I42
sg1403
I680
sg1404
I1241
sg1405
I523
sg1406
I217
sg1407
I516
sg1408
I2029
sg1409
I922
sS'4'
I1532
sg1410
I1815
sg1411
I874
sg1412
I494
sg1413
I1234
sg1414
I1940
sg1415
I1796
sg1416
I1056
sg1417
I643
sg1418
I1252
sg1419
I2049
sg1420
I656
sg1421
I743
sg1422
I493
sg1423
I1768
sg1424
I824
sg1425
I1613
sg1426
I1047
sg1427
I808
sg1428
I873
sg1429
I412
sg1430
I957
sg1431
I1454
sg1432
I2056
sg1433
I1745
sg1434
I478
sg1435
I1704
sg1436
I1485
sg1437
I459
sg1438
I1282
sg1439
I1051
sg1440
I1934
sg1441
I1031
sg1442
I1594
sg1443
I434
sg1444
I381
sg1445
I2031
sg1446
I1387
sg1447
I157
sg1448
I1136
sg1449
I288
sg1450
I885
sg1451
I403
sg1452
I1612
sg1453
I1467
sg1454
I1556
sg1455
I1049
sg1456
I71
sg1457
I144
sg1458
I1948
sg1459
I733
sg1460
I754
sg1461
I1706
sg1462
I1429
sg1463
I941
sg1464
I101
sg1465
I2015
sg1466
I1657
sg1467
I577
sg1468
I7
sg1469
I95
sg1470
I853
sg1471
I1890
sg1472
I1777
sg1473
I152
sg1474
I921
sg1475
I1357
sg1476
I1616
sg1477
I1316
sg1478
I2013
sg1479
I172
sg1480
I949
sg1481
I1694
sg1482
I438
sg1483
I1338
sg1484
I503
sg1485
I2053
sg1486
I2034
sg1487
I2043
sg1488
I1692
sg1489
I1361
sg1490
I660
sg1491
I2024
sg1492
I36
sg1493
I1912
sg1494
I1695
sg1495
I1297
sg1496
I988
sg1497
I1288
sg1498
I150
sg1499
I1499
sg1500
I1437
sg1501
I1983
sg1502
I732
sg1503
I378
sg1504
I116
sg1505
I954
sg1506
I1900
sg1507
I1318
sg1508
I1218
sg1509
I426
sg1510
I1797
sg1511
I1868
sg1512
I476
sg1513
I1470
sg1514
I197
sg1515
I1671
sg1516
I1751
sg1517
I1154
sg1518
I1774
sg1519
I1423
sg1520
I59
sg1521
I1648
sg1522
I661
sg1523
I721
sg1524
I1242
sg1525
I142
sg1526
I1960
sg1527
I1824
sg1528
I2011
sg1529
I338
sg1530
I1696
sg1531
I1302
sg1532
I826
sg1533
I1610
sg1534
I1103
sg1535
I1947
sg1536
I1350
sg1537
I1375
sg1538
I1681
sg1539
I1413
sg1540
I668
sg1541
I1469
sg1542
I1579
sg1543
I1336
sg1544
I1202
sg1545
I812
sg1546
I1165
sg1547
I1417
sg1548
I1969
sg1549
I2059
sg1550
I1819
sg1551
I1550
sg1552
I410
sg1553
I1307
sg1554
I1811
sg1555
I1144
sS'\xe2'
I570
sg1556
I440
sg1557
I1157
sg1558
I565
sg1559
I1939
sg1560
I2088
sg1561
I475
sg1562
I34
sg1563
I1219
sg1564
I1881
sg1565
I861
sg1566
I39
sg1567
I956
sg1568
I47
sg1569
I1450
sg1570
I1750
sg1571
I823
sg1572
I77
sg1573
I296
sg1574
I365
sg1575
I1367
sg1576
I1110
sg1577
I259
sg1578
I810
sg1579
I27
sg1580
I189
sg1581
I178
sg1582
I1322
sg1583
I805
sg1584
I1641
sg1585
I969
sg1586
I992
sg1587
I432
sg1588
I1974
sg1589
I2019
sg1590
I734
sg1591
I1326
sg1592
I1845
sg1593
I1598
sg1594
I1712
sg1595
I1737
sg1596
I2080
sg1597
I1679
sg1598
I1433
sg1599
I2084
sg1600
I1124
sg1601
I1786
sg1602
I5
sg1603
I1135
sg1604
I1444
sg1605
I1611
sg1606
I1198
sg1607
I1305
sg1608
I369
sg1609
I2096
sg1610
I21
sg1611
I696
sg1612
I2
sg1613
I541
sg1614
I2065
sg1615
I2085
sg1616
I612
sg1617
I1941
sg1618
I889
sg1619
I1795
sS'P'
I1861
sg1620
I1653
sg1621
I1728
sg1622
I1383
sg1623
I25
sg1624
I1874
sg1625
I463
sg1626
I1920
sg1627
I375
sg1628
I1226
sg1629
I1257
sg1630
I971
sg1631
I1573
sg1632
I607
sg1633
I293
sg1634
I1227
sg1635
I1702
sg1636
I728
sg1637
I1661
sg1638
I368
sg1639
I301
sg1640
I2037
sg1641
I283
sg1642
I1254
sg1643
I1887
sg1644
I815
sg1645
I271
sg1646
I719
sg1647
I309
sg1648
I613
sg1649
I16
sg1650
I964
sg1651
I836
sg1652
I1436
sg1653
I72
sg1654
I1306
sg1655
I1730
sg1656
I1936
sg1657
I1790
sg1658
I1801
sg1659
I543
sg1660
I1174
sg1661
I1682
sg1662
I1448
sg1663
I1721
sg1664
I1726
sg1665
I903
sg1666
I724
sg1667
I311
sg1668
I305
sg1669
I445
sg1670
I2032
sg1671
I436
sg1672
I1794
sg1673
I484
sg1674
I965
sg1675
I827
sg1676
I1858
sg1677
I1639
sg1678
I247
sg1679
I616
sg1680
I927
sg1681
I6
sg1682
I312
sg1683
I883
sg1684
I1438
sg1685
I1783
sg1686
I1176
sg1687
I1192
sg1688
I2033
sg1689
I56
sg1690
I1791
sg1691
I13
sg1692
I392
sg1693
I28
sg1694
I1179
sg1695
I1325
sg1696
I538
sg1697
I847
sg1698
I1220
sg1699
I854
sg1700
I2066
sg1701
I461
sg1702
I1147
sg1703
I1488
sg1704
I1851
sg1705
I702
sg1706
I850
sg1707
I451
sg1708
I97
sg1709
I1714
sg1710
I792
sg1711
I891
sg1712
I842
sg1713
I683
sg1714
I1634
sg1715
I1643
sg1716
I1855
sg1717
I968
sg1718
I2004
sg1719
I1275
sg1720
I1178
sg1721
I1848
sg1722
I1551
sg1723
I1944
sg1724
I1623
sg1725
I1414
sg1726
I1452
sg1727
I752
sg1728
I1830
sg1729
I245
sg1730
I1583
sg1731
I1440
sg1732
I1843
sg1733
I2058
sg1734
I1520
sg1735
I84
sg1736
I1278
sg1737
I1223
sg1738
I1591
sg1739
I468
sg1740
I124
sg1741
I1301
sg1742
I485
sg1743
I1002
sg1744
I268
sg1745
I1604
sg1746
I555
sg1747
I662
sg1748
I443
sg1749
I1072
sg1750
I2076
sg1751
I1175
sg1752
I277
sg1753
I1966
sg1754
I1128
sg1755
I723
sg1756
I1050
sg1757
I910
sg1758
I860
sg1759
I127
sg1760
I1809
sg1761
I2081
sS"'"
I158
sg1762
I1724
sg1763
I559
sg1764
I120
sg1765
I218
sg1766
I939
sg1767
I806
sg1768
I246
sg1769
I1145
sg1770
I772
sg1771
I1635
sg1772
I1822
sg1773
I832
sg1774
I1927
sg1775
I1743
sg1776
I1995
sg1777
I636
sg1778
I1001
sg1779
I1566
sg1780
I500
sg1781
I202
sg1782
I1804
sg1783
I1733
sg1784
I1004
sg1785
I424
sg1786
I405
sg1787
I1466
sg1788
I592
sg1789
I545
sg1790
I1347
sg1791
I60
sg1792
I1910
sg1793
I1990
sg1794
I1064
sg1795
I241
sg1796
I1186
sg1797
I233
sg1798
I597
sg1799
I1954
sg1800
I539
sg1801
I605
sg1802
I1818
sg1803
I667
sg1804
I1439
sg1805
I1536
sg1806
I945
sg1807
I1244
sg1808
I849
sg1809
I775
sg1810
I1036
sg1811
I795
sg1812
I473
sg1813
I976
sg1814
I411
sg1815
I1606
sg1816
I1766
sg1817
I845
sg1818
I196
sg1819
I1251
sg1820
I1018
sg1821
I1327
sg1822
I831
sg1823
I361
sg1824
I852
sg1825
I821
sg1826
I1680
sg1827
I2020
sg1828
I270
sg1829
I308
sg1830
I1527
sg1831
I1624
sg1832
I154
sg1833
I1239
sg1834
I736
sg1835
I1283
sg1836
I1033
sg1837
I1442
sg1838
I1486
sg1839
I1289
sg1840
I967
sg1841
I1498
sg1842
I1545
sg1843
I619
sg1844
I1552
sg1845
I402
sg1846
I935
sg1847
I156
sg1848
I1802
sg1849
I1371
sg1850
I863
sg1851
I637
sg1852
I573
sg1853
I470
sg1854
I552
sg1855
I531
sg1856
I2048
sg1857
I1501
sg1858
I464
sg1859
I114
sg1860
I1987
sg1861
I1553
sg1862
I1408
sg1863
I744
sg1864
I224
sg1865
I408
sg1866
I1344
sg1867
I187
sg1868
I757
sg1869
I458
sg1870
I3
sg1871
I749
sg1872
I551
sg1873
I429
sg1874
I399
sg1875
I385
sg1876
I1481
sg1877
I800
sg1878
I257
sg1879
I1504
sg1880
I1352
sg1881
I776
sg1882
I1447
sg1883
I1864
sg1884
I24
sg1885
I2018
sg1886
I1434
sg1887
I767
sg1888
I261
sg1889
I1636
sg1890
I961
sg1891
I1698
sg1892
I615
sg1893
I1376
sg1894
I631
sg1895
I52
sg1896
I1675
sg1897
I1929
sg1898
I561
sg1899
I1731
sg1900
I510
sg1901
I870
sg1902
I1225
sg1903
I2028
sg1904
I960
sg1905
I908
sg1906
I391
sg1907
I650
sg1908
I1083
sg1909
I1749
sg1910
I974
sg1911
I20
sg1912
I729
sg1913
I1622
sg1914
I1045
sg1915
I697
sg1916
I878
sg1917
I1537
sg1918
I614
sg1919
I1829
sg1920
I81
sg1921
I591
sg1922
I1561
sg1923
I1380
sg1924
I419
sg1925
I164
sg1926
I1261
sg1927
I220
sg1928
I515
sg1929
I909
sg1930
I1377
sg1931
I2047
sg1932
I1772
sg1933
I332
sg1934
I80
sg1935
I175
sg1936
I786
sg1937
I771
sg1938
I2102
sg1939
I817
sg1940
I1209
sg1941
I2070
sg1942
I1669
sg1943
I1863
sg1944
I1115
sg1945
I1989
sg1946
I1035
sg1947
I1971
sg1948
I1938
sg1949
I250
sg1950
I818
sg1951
I585
sg1952
I1491
sg1953
I1107
sg1954
I479
sg1955
I214
sg1956
I562
sg1957
I2014
sg1958
I498
sg1959
I1630
sg1960
I635
sg1961
I807
sg1962
I190
sg1963
I658
sg1964
I617
sg1965
I556
sg1966
I672
sg1967
I634
sg1968
I1883
sg1969
I618
sg1970
I1205
sg1971
I1005
sg1972
I179
sg1973
I1736
sg1974
I1798
sg1975
I449
sg1976
I230
sg1977
I890
sg1978
I548
sg1979
I1070
sg1980
I1138
sg1981
I1112
sg1982
I1030
sg1983
I1778
sg1984
I513
sg1985
I840
sg1986
I1578
sg1987
I1742
sg1988
I38
sg1989
I1203
sg1990
I837
sg1991
I388
sg1992
I521
sg1993
I654
sg1994
I1424
sg1995
I1685
sg1996
I508
sg1997
I1676
sg1998
I829
sg1999
I1516
sg2000
I942
sg2001
I1217
sg2002
I695
sg2003
I1272
sg2004
I1298
sg2005
I955
sg2006
I867
sg2007
I1069
sg2008
I793
sg2009
I1699
sg2010
I925
sg2011
I1837
sg2012
I640
sg2013
I1633
sg2014
I1647
sg2015
I546
sg2016
I263
sg2017
I65
sg2018
I1839
sg2019
I569
sg2020
I1160
sg2021
I599
sg2022
I1787
sg2023
I993
sg2024
I135
sg2025
I544
sg2026
I526
sg2027
I572
sg2028
I244
sg2029
I1240
sg2030
I512
sg2031
I1286
sg2032
I677
sg2033
I133
sg2034
I1484
sg2035
I204
sg2036
I2071
sg2037
I8
sg2038
I1287
sg2039
I929
sg2040
I1085
sg2041
I1009
sg2042
I1931
sg2043
I1782
sg2044
I1841
sg2045
I930
sg2046
I727
sg2047
I1421
sg2048
I75
sg2049
I472
sg2050
I1359
sg2051
I328
sg2052
I1012
sg2053
I2091
sg2054
I1119
sg2055
I1168
sg2056
I1718
sg2057
I893
sg2058
I1865
sg2059
I1762
sg2060
I159
sg2061
I611
sg2062
I99
sg2063
I706
sg2064
I779
sg2065
I360
sg2066
I1670
sg2067
I1187
sg2068
I126
sg2069
I1224
sg2070
I1071
sg2071
I1320
sg2072
I242
sg2073
I924
sg2074
I882
sg2075
I1191
sg2076
I302
sg2077
I1323
sg2078
I1277
sg2079
I1194
sg2080
I1293
sg2081
I1399
sg2082
I1909
sg2083
I679
sg2084
I1394
sg2085
I1746
sg2086
I1167
sg2087
I1659
sg2088
I310
sg2089
I1852
sg2090
I864
sg2091
I895
sg2092
I1996
sg2093
I74
sg2094
I1411
sg2095
I1619
sg2096
I1581
sg2097
I1605
sg2098
I1321
sg2099
I759
sg2100
I1757
sS'U'
I248
sg2101
I1655
sg2102
I811
sg2103
I2036
sg2104
I876
sg2105
I173
sg2106
I670
sg2107
I1385
ssS'_reverse_mapping'
p2110
(lp2111
g12
ag400
ag1612
ag1870
ag127
ag1602
ag1681
ag1468
ag2037
ag233
ag884
ag1340
ag1072
ag1691
aS'-'
ag1039
ag1649
ag530
ag746
ag971
ag1911
ag1610
ag948
ag226
ag1884
ag1623
ag381
ag1579
ag1693
ag266
ag671
ag1038
ag630
ag110
ag1562
ag1067
ag1492
ag409
ag1988
ag1566
ag385
ag967
ag1402
ag388
ag24
ag744
ag357
ag1568
ag917
ag991
ag771
ag1128
ag1895
ag1338
ag84
ag135
ag1689
ag434
ag936
ag1520
ag1791
ag483
ag981
ag74
ag791
ag2017
ag595
ag907
ag808
ag172
ag777
ag1456
ag1653
ag23
ag2093
ag2048
ag968
ag1572
ag1202
ag484
ag1934
ag1920
ag1011
aS'a'
ag1735
ag279
ag1276
aS'8'
ag1391
ag211
ag636
ag352
ag132
ag138
ag1271
ag1469
ag308
ag1708
ag775
ag2062
ag405
ag1464
ag713
ag827
ag586
ag406
ag1188
ag1193
ag779
ag587
ag423
ag1162
ag258
ag632
ag1859
ag21
ag1504
ag505
ag549
ag724
ag1764
ag166
ag565
ag1347
ag1740
ag247
ag2068
ag1759
ag751
ag114
ag1306
ag681
ag176
ag2033
ag100
ag2024
ag1327
ag193
ag525
aS'I'
ag66
ag318
ag1525
ag85
ag1457
ag1117
ag694
ag978
ag1346
ag31
ag1498
ag367
ag1473
ag748
ag1832
ag223
ag1847
ag1447
aS"'"
ag2060
ag1319
ag1122
ag719
ag819
ag1925
ag1182
ag974
ag1351
ag635
ag1009
ag102
ag1131
ag1479
ag2105
ag676
ag1935
ag1154
ag323
ag1581
ag1972
ag87
ag1229
ag1196
ag1354
ag698
ag1208
ag937
ag1867
ag584
ag1580
ag1962
ag717
ag162
ag534
ag553
ag286
ag1818
ag1514
ag51
ag1369
ag384
ag841
ag1781
ag144
ag2035
ag1012
ag843
ag1100
ag973
ag222
ag212
aS'2'
ag415
ag1265
ag1955
ag1176
ag324
ag1406
ag1765
ag848
ag1927
ag652
ag326
ag1192
ag1864
ag416
ag1290
ag581
ag596
ag921
ag1976
ag354
ag454
ag1797
ag517
ag535
ag433
ag1034
ag1163
ag1361
ag513
ag1795
ag2072
ag985
ag2028
ag1729
ag1768
ag1678
aS'U'
aS'S'
ag1949
ag109
ag906
ag561
ag339
ag1248
ag1360
ag1878
ag560
ag1577
ag554
ag1888
ag905
ag2016
ag711
ag704
ag787
ag631
ag1744
ag1076
ag1828
ag1645
ag1059
ag456
ag494
ag965
ag1355
ag1752
ag296
ag1160
ag105
ag362
ag1070
ag1641
ag949
ag893
aS's'
aS'5'
ag1449
ag529
ag229
ag510
ag1393
ag1633
ag331
ag450
ag1573
ag346
ag1013
ag425
ag542
ag1639
ag2076
ag1021
ag896
ag1668
ag866
ag1244
ag1829
ag1647
ag2088
ag1667
ag1682
ag590
ag1399
ag185
ag803
ag858
ag1026
ag26
ag886
ag757
ag470
ag184
ag872
ag911
ag69
ag159
ag2051
ag112
ag655
ag969
ag1933
ag147
ag1156
ag492
ag982
ag501
ag1529
aS'v'
ag1142
ag618
ag914
ag682
ag61
ag336
ag244
ag444
aS'3'
ag691
ag1119
ag731
ag1240
ag202
ag43
ag1233
ag1139
ag558
ag556
ag1086
ag2065
ag1823
ag44
ag628
ag1315
ag1574
ag347
ag745
ag1638
ag1608
ag782
ag609
ag956
ag488
ag621
ag1627
ag1126
ag1178
ag1503
ag1373
ag1231
ag1444
aS'1'
ag382
ag809
ag1875
ag1171
ag353
ag1991
ag235
ag448
ag1906
ag1692
ag295
ag303
ag895
ag46
ag605
ag290
ag1874
ag970
ag637
ag1845
ag1451
ag1181
ag1786
ag1099
ag98
ag1865
ag1019
ag1552
ag1814
ag1429
ag643
ag842
ag310
ag221
ag471
ag1365
ag1924
ag284
ag559
ag374
ag54
ag1785
ag916
ag1509
ag672
ag950
ag1873
ag245
ag94
ag1587
ag576
ag1443
ag390
ag1671
ag441
ag1482
ag958
ag1556
ag862
ag696
ag1748
ag562
ag1669
ag141
ag1398
ag309
ag1975
ag396
ag1707
ag810
ag611
ag755
ag1264
ag495
ag1185
ag1869
ag1437
ag376
ag1701
ag86
ag1625
ag1858
ag251
ag125
ag874
ag1739
ag692
ag1853
ag19
ag2049
ag1812
ag867
ag1561
ag1512
ag1161
ag1434
ag1954
ag219
ag421
ag103
ag1260
ag1673
ag1742
ag1197
ag1129
ag1167
ag718
ag1263
ag1104
ag668
ag1422
ag1412
ag579
ag890
ag1172
ag1958
ag1083
ag1780
ag1143
ag1152
ag1484
ag1006
aS'X'
ag863
ag342
ag1996
ag738
ag1900
ag946
ag2030
ag1984
ag597
ag1928
ag1407
ag1222
ag72
ag607
ag902
ag1992
ag341
ag1405
ag257
ag1401
ag2026
ag256
ag1285
ag242
ag876
ag1855
ag261
ag208
ag904
ag686
ag947
ag727
ag1696
ag1800
ag1087
ag1613
ag201
ag1659
ag2025
ag1789
ag2015
ag1356
ag1978
ag1195
ag431
ag1872
ag1854
ag1326
ag708
ag1746
ag1965
ag1151
ag689
ag1763
ag422
ag1898
ag1956
ag1002
ag1096
ag1558
ag1242
ag239
ag108
ag2019
aS'\xe2'
ag832
ag2027
ag1852
ag187
ag1288
ag1241
ag1467
ag437
ag1371
ag335
ag1132
ag1343
ag254
ag548
ag1951
ag806
ag119
ag282
ag1390
ag769
ag1921
ag1788
ag1317
ag302
ag1238
ag1379
ag1798
ag820
ag2021
ag1307
ag616
ag1350
ag1292
ag614
ag1801
ag1234
ag1632
ag194
ag720
ag438
ag2061
ag1616
ag1648
ag1918
ag1892
ag1679
ag1964
ag1969
ag1843
ag1375
ag883
ag460
ag786
ag801
ag934
ag589
ag111
ag461
ag1194
ag1024
ag1894
ag1333
ag728
ag1967
ag1960
ag1777
ag1851
ag1041
ag1029
ag2012
ag158
ag638
ag1417
ag772
ag210
ag391
ag403
ag297
ag512
ag1907
ag988
ag765
ag1283
ag1993
ag734
ag1420
ag232
ag1963
ag1010
ag1490
ag1522
ag1747
ag1342
ag1077
ag546
ag523
ag1803
ag1540
ag901
ag2106
ag1036
ag1966
ag1158
ag544
ag106
ag551
ag2032
ag927
ag2083
ag1403
ag1324
ag475
ag1713
ag892
ag807
ag366
ag509
ag648
ag996
ag1295
ag435
ag316
ag508
ag582
ag2002
ag1611
ag1915
ag931
ag1004
ag96
ag270
ag1705
ag521
ag1256
ag1316
ag2063
ag1226
ag198
ag898
ag1289
ag674
ag1134
ag575
ag1314
ag32
ag170
ag134
ag568
ag1646
ag926
ag1523
ag714
ag1755
ag1666
ag627
ag788
ag2046
ag1636
ag1912
ag410
ag82
ag1502
ag1459
ag1590
ag486
ag1834
ag1293
ag592
ag997
ag300
ag695
ag399
ag1421
ag1863
ag928
ag822
ag834
ag1106
ag1871
ag805
ag157
ag1727
ag524
ag1460
ag499
ag798
ag1868
ag452
ag2099
ag39
ag733
ag1053
ag983
ag1043
ag541
ag537
ag1887
ag1330
ag1147
ag859
ag1937
ag1770
ag467
ag944
ag1809
ag1881
ag774
ag92
ag2064
ag1046
ag951
ag1048
ag190
ag325
ag237
ag1936
ag289
ag642
ag25
ag227
ag378
ag1710
ag2008
ag540
ag1811
ag1280
ag938
ag783
ag317
ag1877
ag1357
ag1071
ag71
ag131
ag1583
ag1767
ag1961
ag1427
ag169
ag1578
ag2102
ag1545
ag1056
ag725
ag1644
ag817
ag1939
ag1950
ag393
ag915
ag1825
ag1367
ag1571
ag1424
ag426
ag1532
ag1675
ag1362
ag1998
ag404
ag1822
ag1773
ag1049
ag113
ag1001
ag1651
ag1990
ag197
ag1098
ag1985
ag507
ag1712
ag277
ag216
ag1817
ag199
ag1697
ag650
ag1808
ag1706
ag93
ag1824
ag1470
ag1699
ag1312
ag799
ag690
ag684
ag1150
ag1758
ag1565
ag960
ag1850
ag2090
ag770
ag1213
ag2006
ag1085
ag101
ag1901
ag620
ag205
ag1428
ag1411
ag1322
ag2104
ag371
ag1916
ag1380
ag428
ag457
ag2074
ag1683
ag651
ag1450
ag1175
ag813
ag776
ag1618
ag1977
ag1711
ag75
ag2057
ag163
ag2091
ag932
ag962
ag528
ag835
ag700
ag1257
ag175
ag1665
ag588
ag1074
ag380
ag715
ag1905
ag1929
ag1757
ag419
ag617
ag1254
ag294
ag823
ag1014
ag1335
ag238
ag1329
ag994
ag1474
ag1409
ag1321
ag2073
ag2010
ag120
ag1680
ag1075
ag2039
ag2045
ag1337
ag485
ag1137
ag1204
ag1846
ag1282
ag847
ag785
ag1766
ag432
ag1463
ag2000
ag496
ag922
ag1806
ag37
ag747
ag292
ag1480
ag826
ag1310
ag107
ag83
ag1505
ag2005
ag1567
ag1430
ag459
ag1245
ag1904
ag1890
ag543
ag664
ag1650
ag1674
ag1040
ag1840
ag1717
ag1585
ag959
ag1630
ag411
ag941
ag1910
ag333
ag1813
ag1217
ag167
ag511
ag849
ag1028
ag1339
ag865
ag225
ag1173
ag538
ag383
ag1496
ag800
ag149
ag285
ag1586
ag2023
ag343
ag654
ag739
ag831
ag557
ag1062
ag1268
ag1778
ag1743
ag697
ag1784
ag1971
ag1030
ag328
ag360
ag2041
ag780
ag1309
ag2052
ag1261
ag143
ag146
ag1058
ag27
ag1820
ag1352
ag407
ag1164
ag267
ag633
ag117
ag1097
ag67
ag735
aS't'
ag707
ag1982
ag1441
ag220
ag1836
ag846
ag1946
ag1810
ag1140
ag255
ag1125
ag1300
ag1093
ag881
ag818
ag173
ag1914
ag658
ag1426
ag1328
ag1455
ag1756
ag1439
ag228
ag600
ag139
ag912
ag1416
ag462
ag1206
ag1374
ag1081
ag918
ag1392
ag836
ag1794
ag1301
ag430
ag213
ag924
ag2007
ag1979
ag2070
ag1749
ag417
ag679
ag52
ag1068
ag608
ag1138
ag455
ag48
ag264
ag979
ag1908
ag1023
ag2040
ag773
ag585
ag81
ag1073
ag136
ag1144
ag123
ag999
ag64
ag531
ag1250
ag821
ag954
ag1270
ag1089
ag321
ag330
ag1534
ag552
ag646
ag852
ag1953
ag1051
ag250
ag1576
ag478
ag1981
ag1116
ag743
ag1944
ag1370
ag710
ag702
ag2054
ag240
ag1203
ag115
ag1169
ag1600
ag598
ag1184
ag619
ag1754
ag533
ag192
ag351
ag288
ag490
ag920
ag1603
ag1448
ag897
ag1980
ag160
ag567
ag1366
ag1364
ag263
ag1555
ag1769
ag1060
ag1702
ag1095
ag1078
ag387
ag1187
ag1130
ag1236
ag1517
ag812
ag824
ag1557
ag420
ag839
ag2020
ag269
ag741
ag1273
ag574
ag1546
ag56
ag2086
ag2055
ag868
ag888
ag1094
ag268
ag984
ag1660
ag1751
ag1686
ag761
ag1720
ag1694
ag22
ag802
ag910
ag364
ag732
ag1251
ag1796
ag2067
ag1000
ag424
ag89
ag2075
ag1687
ag281
ag2079
ag465
ag536
ag891
ag1606
ag833
ag966
ag145
ag1544
ag1989
ag778
ag1970
ag35
ag476
ag1127
ag1940
ag55
ag1200
ag152
ag736
ag62
ag1294
ag1174
ag2001
ag1508
ag1563
ag1698
ag195
ag878
ag1737
ag2069
ag1902
ag1628
ag1634
ag440
ag919
ag439
ag265
ag683
ag1035
ag1413
ag206
ag992
ag624
ag30
ag1833
ag2029
ag1404
ag1524
ag154
ag1807
ag1044
ag500
ag252
ag712
ag1170
ag520
ag1819
ag1418
ag449
ag1642
ag1209
ag879
ag1629
ag1377
ag275
ag177
ag1926
ag304
ag436
ag299
ag555
ag196
ag670
ag168
ag885
ag1384
ag1025
ag2003
ag217
ag1111
ag1719
ag1253
ag2078
ag1736
ag1166
ag639
ag181
ag1438
ag1835
ag1224
ag301
ag2031
ag2038
ag1497
ag1839
ag1016
ag463
ag1211
ag2080
ag249
ag880
ag840
ag1495
ag2004
ag1278
ag491
ag1741
ag1531
ag766
ag474
ag1607
ag1654
ag1553
ag126
ag276
ag312
ag392
ag593
ag1088
ag1190
ag408
ag1477
ag845
ag1507
ag610
ag2071
ag2098
ag1582
ag2077
ag504
ag1695
ag1591
ag1821
ag80
ag993
ag338
ag33
ag453
ag469
ag214
ag79
ag1543
ag241
ag1483
ag473
ag1042
ag796
ag804
ag59
ag1866
ag1383
ag271
ag1790
ag869
ag350
ag1536
ag516
ag1880
ag572
ag174
aS'\xc2'
ag726
ag1475
ag28
ag2050
ag709
ag1489
ag763
ag1091
ag935
ag1199
ag137
ag1575
ag234
ag60
ag1336
ag1849
ag1017
ag1348
ag545
ag1537
ag1893
ag1930
ag322
ag667
ag1923
ag933
ag1334
ag1622
ag816
ag2107
ag1113
ag1446
ag246
ag641
ag591
ag894
ag706
ag1341
ag2084
ag1262
ag580
ag1136
ag1220
ag2081
ag124
ag963
ag1191
ag1108
ag1349
ag1212
ag29
ag657
ag1862
ag1353
ag539
ag2094
ag1032
ag1539
ag1725
ag1266
ag442
ag1547
ag615
ag793
ag90
ag2047
ag1255
ag1519
ag1994
ag1165
ag231
ag418
ag58
ag1462
ag908
ag189
ag678
ag1598
ag1886
ag1047
ag1652
ag1500
ag1684
ag1804
ag1731
ag856
ag1837
ag853
ag1604
ag570
ag63
ag1882
ag1662
ag1216
ag1569
ag645
ag1726
ag1291
ag1431
ag489
ag563
ag1120
ag850
ag571
ag522
ag1080
ag729
ag1400
ag481
ag828
ag1787
ag1453
ag365
ag1541
ag1513
ag663
ag1198
ag1272
ag401
ag497
ag647
ag1102
ag814
ag1149
ag332
ag1876
ag313
ag49
ag2034
ag1436
ag1838
ag204
ag1703
ag767
ag762
ag1952
ag349
ag566
ag150
ag764
ag1228
ag699
ag1841
ag1499
ag262
ag1857
ag311
ag1123
ag1879
ag1318
ag412
ag447
ag1110
ag1252
aS'W'
ag355
ag1284
ag116
aS'A'
ag1235
ag1999
ag754
ag703
ag644
ag1734
ag623
ag57
ag675
ag1368
ag781
ag1279
ag1830
ag1219
ag990
ag191
ag1045
aS'4'
ag183
ag995
ag65
ag1805
ag1917
ag887
ag1114
ag272
ag1064
ag487
ag1395
ag753
ag1842
ag1394
ag356
ag923
ag768
ag1551
ag1722
ag1844
ag1861
ag723
ag200
ag1454
ag515
ag1267
ag1179
ag1303
ag1922
ag564
ag375
ag398
ag306
ag1779
aS'J'
ag1145
ag1332
ag998
ag293
ag1381
ag1631
ag468
ag550
ag1376
ag1050
ag1986
ag1542
ag153
ag2096
ag815
ag1730
ag95
ag795
ag604
ag1124
ag215
ag930
ag1057
ag1738
ag1221
ag756
ag1442
ag334
ag337
ag1243
ag1593
ag40
ag790
ag1007
ag662
ag759
ag1745
ag2097
ag1815
ag1320
ag18
ag913
ag1533
ag1605
ag1452
ag1425
ag179
ag155
ag1476
ag446
ag976
ag2095
ag861
ag248
ag1913
ag1724
ag1831
ag1396
ag680
ag957
ag939
ag797
ag1959
ag348
ag1133
ag2013
ag1714
ag1771
ag1889
ag1118
ag480
ag1677
ag1249
ag1584
ag482
ag1715
ag1225
ag1033
ag837
ag2014
ag1521
ag1146
ag583
ag429
ag1069
ag1620
ag305
ag2101
ag669
ag1466
ag1304
ag2087
ag882
ag1637
ag989
ag1054
ag280
ag320
ag1397
ag1239
ag514
ag1942
ag2066
ag1515
ag1259
ag961
ag640
ag1896
ag1997
ag526
ag50
ag1597
ag1826
ag1538
ag1661
ag622
ag889
ag1995
ag634
ag1090
ag844
ag1232
ag1066
ag1180
ag1488
ag955
ag1481
ag1494
ag1530
ag1297
ag1891
ag2009
ag1214
ag1345
ag1635
ag1298
ag1435
ag1286
ag1461
ag599
ag909
ag1168
ag789
ag1363
ag1594
ag1227
ag1709
ag1107
ag1031
ag1003
ag2056
ag502
ag830
ag1663
ag314
ag372
ag1762
ag693
ag1664
ag1269
ag1621
ag527
ag1655
ag1899
ag1223
ag1783
ag88
ag1148
ag1973
ag1595
ag394
ag1027
ag688
ag340
ag1987
ag1775
ag665
ag1433
ag2085
ag130
ag498
ag1909
ag1570
ag1516
ag977
ag1313
ag1105
ag230
ag377
ag2100
ag987
ag784
ag942
ag1177
ag2059
ag594
ag625
ag243
ag1816
ag329
ag1423
ag687
ag129
ag97
ag1932
ag659
ag1518
ag298
ag47
ag1472
ag1983
ag1210
ag1135
ag1386
ag2043
ag1685
ag209
ag903
ag1601
ag2022
ag42
ag547
ag1657
ag1690
ag943
ag104
ag1672
ag1619
ag1415
ag1510
ag1974
ag851
ag1274
ag1658
ag1848
ag458
ag1782
ag186
ag307
ag1101
ag188
ag1760
ag1186
ag1554
ag370
ag503
ag20
ag1410
ag182
ag870
ag1802
ag1550
ag76
ag864
ag1772
ag395
ag1527
ag649
ag838
ag319
ag1331
ag1919
ag1728
ag142
ag164
ag925
ag929
ag519
ag1247
ag2011
ag1061
ag2018
ag1218
ag2044
ag760
ag1732
ag1372
ag1592
ag466
ag578
ag1721
ag737
ag666
ag1704
ag2089
ag532
ag38
ag1716
ag758
ag161
ag1676
ag358
ag811
aS'P'
ag857
ag1943
ag1883
ag2058
ag601
ag274
ag1511
ag1281
ag1382
ag660
ag1109
ag1385
ag1624
ag875
ag603
ag577
ag1005
ag41
ag749
ag1564
ag980
ag1968
ag722
ag1052
ag1387
ag1643
ag1258
ag629
ag1471
ag1323
ag236
ag472
ag975
ag91
ag1015
ag1092
ag413
ag1055
ag1506
ag1246
ag260
ag259
ag1112
ag493
ag1153
ag363
ag986
ag2082
ag1792
ag1305
ag1493
ag379
ag218
ag705
ag443
ag656
ag613
ag945
ag1626
ag283
ag180
ag36
ag369
ag45
ag626
ag1774
ag653
ag1897
ag165
ag2042
ag1183
ag344
ag1440
ag224
ag1656
ag953
ag1948
ag1559
ag1414
ag1617
ag1103
ag1287
ag1723
ag518
ag128
ag1535
ag1458
ag1378
ag1022
ag794
ag133
ag877
ag1799
ag361
ag1155
ag73
ag171
ag1311
ag1526
ag740
ag140
ag964
ag899
ag99
ag1753
ag721
ag1020
ag1548
ag1302
ag1947
ag860
ag345
ag1588
ag1215
ag397
ag825
ag315
ag477
ag402
ag855
ag730
ag1501
ag677
ag287
ag414
ag1860
ag373
ag1945
ag1793
ag1157
ag479
ag569
ag156
ag1776
ag2092
ag952
ag673
ag445
ag752
ag871
ag253
ag1308
ag1718
ag701
ag70
ag148
ag1344
ag661
ag750
ag1528
ag606
ag1478
ag1957
ag1465
ag151
ag1237
ag1885
ag1589
ag1827
ag506
ag1115
ag1121
ag1491
ag829
ag1207
ag122
ag1903
ag1408
ag1230
ag1445
ag1670
ag1688
ag1486
ag1359
ag2103
ag1640
ag1159
ag900
ag68
ag1008
ag78
ag1487
ag386
ag368
ag1084
ag1931
ag1856
ag1419
ag118
ag612
ag1296
ag1485
ag1201
ag1079
ag1432
ag873
ag1733
ag1549
ag792
ag291
ag451
ag1388
ag1358
ag1614
ag1700
ag278
ag716
ag1325
ag1941
ag2036
ag940
ag1277
ag1299
ag77
ag1750
ag34
ag742
ag121
ag1596
ag1761
ag1018
ag573
ag1599
ag1615
ag207
ag389
ag1560
ag427
ag1037
ag2053
ag1205
ag178
ag359
ag1141
ag1609
ag602
ag972
ag1389
ag273
ag854
ag1938
ag1189
ag53
ag1275
ag327
ag685
ag203
ag1063
ag1065
ag464
ag1082
asbsS'max_document_length'
p2112
I100
sS'_tokenizer'
p2113
ctensorflow.contrib.learn.python.learn.preprocessing.text
tokenizer
p2114
sS'min_frequency'
p2115
I0
sb.